

Microchip Technology PIC18 LITE Macro Assembler V1.33 build 59893 
                                                                                               Fri Oct 02 23:03:50 2020

Microchip Technology Omniscient Code Generator (Lite mode) build 59893
     1                           	processor	18F45K22
     2                           	fnconf	rparam,??,?,0
     3                           	opt	pw 120
     4                           	opt	lm
     5                           	psect	idataCOMRAM,global,class=CODE,delta=1
     6                           	psect	smallconst,global,reloc=2,class=SMALLCONST,delta=1
     7                           	psect	cinit,global,reloc=2,class=CODE,delta=1
     8                           	psect	bssCOMRAM,global,class=COMRAM,space=1,delta=1
     9                           	psect	dataCOMRAM,global,class=COMRAM,space=1,delta=1
    10                           	psect	bssBANK0,global,class=BANK0,space=1,delta=1
    11                           	psect	bssBANK1,global,class=BANK1,space=1,delta=1
    12                           	psect	cstackBANK1,global,class=BANK1,space=1,delta=1
    13                           	psect	cstackBANK0,global,class=BANK0,space=1,delta=1
    14                           	psect	cstackCOMRAM,global,class=COMRAM,space=1,delta=1
    15                           	psect	text0,global,reloc=2,class=CODE,delta=1
    16                           	psect	text1,global,reloc=2,class=CODE,delta=1
    17                           	psect	text2,global,reloc=2,class=CODE,delta=1
    18                           	psect	text3,global,reloc=2,class=CODE,delta=1
    19                           	psect	text4,global,reloc=2,class=CODE,delta=1
    20                           	psect	text5,global,reloc=2,class=CODE,delta=1
    21                           	psect	text6,global,reloc=2,class=CODE,delta=1
    22                           	psect	text7,global,reloc=2,class=CODE,delta=1
    23                           	psect	text8,global,reloc=2,class=CODE,delta=1
    24                           	psect	text9,global,reloc=2,class=CODE,delta=1
    25                           	psect	text10,global,reloc=2,class=CODE,delta=1
    26                           	psect	text11,global,reloc=2,class=CODE,delta=1
    27                           	psect	text12,global,reloc=2,class=CODE,delta=1
    28                           	psect	text13,global,reloc=2,class=CODE,delta=1
    29                           	psect	text14,global,reloc=2,class=CODE,delta=1
    30                           	psect	text15,global,reloc=2,class=CODE,delta=1
    31                           	psect	text16,global,reloc=2,class=CODE,delta=1
    32                           	psect	text17,global,reloc=2,class=CODE,delta=1
    33                           	psect	text18,global,reloc=2,class=CODE,delta=1
    34                           	psect	text19,global,reloc=2,class=CODE,delta=1
    35                           	psect	text20,global,reloc=2,class=CODE,delta=1
    36                           	psect	intcode,global,reloc=2,class=CODE,delta=1
    37                           	psect	text22,global,reloc=2,class=CODE,delta=1
    38                           	psect	text23,global,reloc=2,class=CODE,delta=1
    39                           	psect	text24,global,reloc=2,class=CODE,delta=1
    40                           	psect	text25,global,reloc=2,class=CODE,delta=1
    41                           	psect	text26,global,reloc=2,class=CODE,delta=1
    42                           	psect	text27,global,reloc=2,class=CODE,delta=1
    43                           	psect	intsave_regs,global,class=BIGRAM,space=1,delta=1
    44                           	psect	rparam,global,class=COMRAM,space=1,delta=1
    45  0000                     
    46                           	psect	idataCOMRAM
    47  00142A                     __pidataCOMRAM:
    48                           	opt stack 0
    49                           
    50                           ;initializer for _HMSec
    51  00142A  0A                 	db	10
    52                           
    53                           ;initializer for _OneSec
    54  00142B  64                 	db	100
    55                           
    56                           ;initializer for _TmrSec
    57  00142C  3C                 	db	60
    58                           
    59                           ;initializer for _lcd_disp
    60  00142D  0C                 	db	12
    61                           
    62                           	psect	smallconst
    63  000600                     __psmallconst:
    64                           	opt stack 0
    65  000600  00                 	db	0
    66  000601                     _hexpowers:
    67                           	opt stack 0
    68  000601  0001               	dw	1
    69  000603  0010               	dw	16
    70  000605  0100               	dw	256
    71  000607  1000               	dw	4096
    72  000609                     __end_of_hexpowers:
    73                           	opt stack 0
    74  0000                     _ADCON0	set	4034
    75  0000                     _ADCON0bits	set	4034
    76  0000                     _ADCON1	set	4033
    77  0000                     _ADCON2	set	4032
    78  0000                     _ADRESH	set	4036
    79  0000                     _ADRESL	set	4035
    80  0000                     _ANSELA	set	3896
    81  0000                     _ANSELB	set	3897
    82  0000                     _ANSELC	set	3898
    83  0000                     _ANSELD	set	3899
    84  0000                     _ANSELE	set	3900
    85  0000                     _BAUDCON1bits	set	4024
    86  0000                     _BAUDCON2bits	set	3952
    87  0000                     _CCP1CON	set	4029
    88  0000                     _CCP2CON	set	3942
    89  0000                     _CCP3CON	set	3933
    90  0000                     _CCP4CON	set	3927
    91  0000                     _CCPR1H	set	4031
    92  0000                     _CCPR1L	set	4030
    93  0000                     _CCPR2H	set	3944
    94  0000                     _CCPR2L	set	3943
    95  0000                     _CCPR3H	set	3935
    96  0000                     _CCPR3L	set	3934
    97  0000                     _CCPR4H	set	3929
    98  0000                     _CCPR4L	set	3928
    99  0000                     _CCPTMRS0bits	set	3913
   100  0000                     _CCPTMRS1bits	set	3912
   101  0000                     _ECCP1AS	set	4022
   102  0000                     _ECCP2AS	set	3940
   103  0000                     _ECCP3AS	set	3931
   104  0000                     _EEADR	set	4009
   105  0000                     _EECON1bits	set	4006
   106  0000                     _EECON2	set	4007
   107  0000                     _EEDATA	set	4008
   108  0000                     _INTCON2bits	set	4081
   109  0000                     _INTCON3bits	set	4080
   110  0000                     _INTCONbits	set	4082
   111  0000                     _LATA	set	3977
   112  0000                     _LATAbits	set	3977
   113  0000                     _LATB	set	3978
   114  0000                     _LATBbits	set	3978
   115  0000                     _LATC	set	3979
   116  0000                     _LATCbits	set	3979
   117  0000                     _LATD	set	3980
   118  0000                     _LATDbits	set	3980
   119  0000                     _LATE	set	3981
   120  0000                     _LATEbits	set	3981
   121  0000                     _OSCCON	set	4051
   122  0000                     _OSCCON2	set	4050
   123  0000                     _OSCTUNE	set	3995
   124  0000                     _PIE3bits	set	4003
   125  0000                     _PIR1bits	set	3998
   126  0000                     _PORTAbits	set	3968
   127  0000                     _PORTBbits	set	3969
   128  0000                     _PORTCbits	set	3970
   129  0000                     _PORTDbits	set	3971
   130  0000                     _PORTEbits	set	3972
   131  0000                     _PR2	set	4027
   132  0000                     _PSTR1CON	set	4025
   133  0000                     _PSTR2CON	set	3939
   134  0000                     _PSTR3CON	set	3930
   135  0000                     _PWM1CON	set	4023
   136  0000                     _PWM2CON	set	3941
   137  0000                     _PWM3CON	set	3932
   138  0000                     _RCONbits	set	4048
   139  0000                     _RCREG1	set	4014
   140  0000                     _RCREG2	set	3956
   141  0000                     _RCSTA	set	4011
   142  0000                     _RCSTA2	set	3953
   143  0000                     _RCSTA2bits	set	3953
   144  0000                     _SPBRG1	set	4015
   145  0000                     _SPBRG2	set	3957
   146  0000                     _SPBRGH	set	4016
   147  0000                     _SPBRGH2	set	3958
   148  0000                     _SSP1BUF	set	4041
   149  0000                     _SSPADD	set	4040
   150  0000                     _SSPCON1bits	set	4038
   151  0000                     _SSPCON2	set	4037
   152  0000                     _SSPCON2bits	set	4037
   153  0000                     _SSPSTATbits	set	4039
   154  0000                     _T0CON	set	4053
   155  0000                     _T1CON	set	4045
   156  0000                     _T1CONbits	set	4045
   157  0000                     _T1GCON	set	4044
   158  0000                     _T2CON	set	4026
   159  0000                     _T2CONbits	set	4026
   160  0000                     _TMR0H	set	4055
   161  0000                     _TMR0L	set	4054
   162  0000                     _TMR1H	set	4047
   163  0000                     _TMR1L	set	4046
   164  0000                     _TMR2	set	4028
   165  0000                     _TRISAbits	set	3986
   166  0000                     _TRISBbits	set	3987
   167  0000                     _TRISCbits	set	3988
   168  0000                     _TRISDbits	set	3989
   169  0000                     _TRISEbits	set	3990
   170  0000                     _TXREG	set	4013
   171  0000                     _TXREG2	set	3955
   172  0000                     _TXSTA	set	4012
   173  0000                     _TXSTA2	set	3954
   174  0000                     _VREFCON0	set	3906
   175  0000                     _PEIE	set	32662
   176  0000                     _PLLRDY	set	32407
   177  0000                     _RC2IE	set	32029
   178  0000                     _RC2IF	set	32037
   179  0000                     _RC2IP	set	32045
   180  0000                     _RCIE	set	31981
   181  0000                     _RCIF	set	31989
   182  0000                     _RCIP	set	31997
   183  0000                     _TMR0IE	set	32661
   184  0000                     _TMR0IF	set	32658
   185  0000                     _TMR0IP	set	32650
   186  0000                     _TX2IE	set	32028
   187  0000                     _TX2IF	set	32036
   188  0000                     _TX2IP	set	32044
   189  0000                     _TXIE	set	31980
   190  0000                     _TXIF	set	31988
   191  0000                     _TXIP	set	31996
   192  000609                     __stringdata:
   193                           	opt stack 0
   194  000609                     STR_3:
   195  000609  49                 	db	73	;'I'
   196  00060A  32                 	db	50	;'2'
   197  00060B  43                 	db	67	;'C'
   198  00060C  20                 	db	32
   199  00060D  64                 	db	100	;'d'
   200  00060E  65                 	db	101	;'e'
   201  00060F  76                 	db	118	;'v'
   202  000610  69                 	db	105	;'i'
   203  000611  63                 	db	99	;'c'
   204  000612  65                 	db	101	;'e'
   205  000613  20                 	db	32
   206  000614  66                 	db	102	;'f'
   207  000615  6F                 	db	111	;'o'
   208  000616  75                 	db	117	;'u'
   209  000617  6E                 	db	110	;'n'
   210  000618  64                 	db	100	;'d'
   211  000619  20                 	db	32
   212  00061A  61                 	db	97	;'a'
   213  00061B  74                 	db	116	;'t'
   214  00061C  20                 	db	32
   215  00061D  61                 	db	97	;'a'
   216  00061E  64                 	db	100	;'d'
   217  00061F  64                 	db	100	;'d'
   218  000620  72                 	db	114	;'r'
   219  000621  65                 	db	101	;'e'
   220  000622  73                 	db	115	;'s'
   221  000623  73                 	db	115	;'s'
   222  000624  20                 	db	32
   223  000625  30                 	db	48	;'0'
   224  000626  78                 	db	120	;'x'
   225  000627  25                 	db	37
   226  000628  2E                 	db	46
   227  000629  32                 	db	50	;'2'
   228  00062A  58                 	db	88	;'X'
   229  00062B  21                 	db	33
   230  00062C  00                 	db	0
   231  00062D                     STR_4:
   232  00062D  4E                 	db	78	;'N'
   233  00062E  6F                 	db	111	;'o'
   234  00062F  20                 	db	32
   235  000630  49                 	db	73	;'I'
   236  000631  32                 	db	50	;'2'
   237  000632  43                 	db	67	;'C'
   238  000633  20                 	db	32
   239  000634  64                 	db	100	;'d'
   240  000635  65                 	db	101	;'e'
   241  000636  76                 	db	118	;'v'
   242  000637  69                 	db	105	;'i'
   243  000638  63                 	db	99	;'c'
   244  000639  65                 	db	101	;'e'
   245  00063A  73                 	db	115	;'s'
   246  00063B  20                 	db	32
   247  00063C  66                 	db	102	;'f'
   248  00063D  6F                 	db	111	;'o'
   249  00063E  75                 	db	117	;'u'
   250  00063F  6E                 	db	110	;'n'
   251  000640  64                 	db	100	;'d'
   252  000641  0A                 	db	10
   253  000642  00                 	db	0
   254  000643                     STR_6:
   255  000643  30                 	db	48	;'0'
   256  000644  31                 	db	49	;'1'
   257  000645  32                 	db	50	;'2'
   258  000646  33                 	db	51	;'3'
   259  000647  34                 	db	52	;'4'
   260  000648  35                 	db	53	;'5'
   261  000649  36                 	db	54	;'6'
   262  00064A  37                 	db	55	;'7'
   263  00064B  38                 	db	56	;'8'
   264  00064C  39                 	db	57	;'9'
   265  00064D  41                 	db	65	;'A'
   266  00064E  42                 	db	66	;'B'
   267  00064F  43                 	db	67	;'C'
   268  000650  44                 	db	68	;'D'
   269  000651  45                 	db	69	;'E'
   270  000652  46                 	db	70	;'F'
   271  000653  00                 	db	0
   272  000654                     STR_1:
   273  000654  0A                 	db	10
   274  000655  49                 	db	73	;'I'
   275  000656  32                 	db	50	;'2'
   276  000657  43                 	db	67	;'C'
   277  000658  20                 	db	32
   278  000659  53                 	db	83	;'S'
   279  00065A  63                 	db	99	;'c'
   280  00065B  61                 	db	97	;'a'
   281  00065C  6E                 	db	110	;'n'
   282  00065D  6E                 	db	110	;'n'
   283  00065E  65                 	db	101	;'e'
   284  00065F  72                 	db	114	;'r'
   285  000660  00                 	db	0
   286  000661                     STR_2:
   287  000661  53                 	db	83	;'S'
   288  000662  63                 	db	99	;'c'
   289  000663  61                 	db	97	;'a'
   290  000664  6E                 	db	110	;'n'
   291  000665  6E                 	db	110	;'n'
   292  000666  69                 	db	105	;'i'
   293  000667  6E                 	db	110	;'n'
   294  000668  67                 	db	103	;'g'
   295  000669  2E                 	db	46
   296  00066A  2E                 	db	46
   297  00066B  2E                 	db	46
   298  00066C  00                 	db	0
   299  00066D                     STR_5:
   300  00066D  64                 	db	100	;'d'
   301  00066E  6F                 	db	111	;'o'
   302  00066F  6E                 	db	110	;'n'
   303  000670  65                 	db	101	;'e'
   304  000671  0A                 	db	10
   305  000672  00                 	db	0
   306  000673                     __end_of__stringdata:
   307                           	opt stack 0
   308  000673  00                 	db	0	; dummy byte at the end
   309  0000                     
   310                           ; #config settings
   311                           
   312                           	psect	cinit
   313  00125C                     __pcinit:
   314                           	opt stack 0
   315  00125C                     start_initialization:
   316                           	opt stack 0
   317  00125C                     __initialization:
   318                           	opt stack 0
   319                           
   320                           ; Clear objects allocated to BANK1 (192 bytes)
   321  00125C  EE01  F000         	lfsr	0,__pbssBANK1
   322  001260  0EC0               	movlw	192
   323  001262                     clear_0:
   324  001262  6AEE               	clrf	postinc0,c
   325  001264  06E8               	decf	wreg,f,c
   326  001266  E1FD               	bnz	clear_0
   327                           
   328                           ; Clear objects allocated to BANK0 (145 bytes)
   329  001268  EE00  F060         	lfsr	0,__pbssBANK0
   330  00126C  0E91               	movlw	145
   331  00126E                     clear_1:
   332  00126E  6AEE               	clrf	postinc0,c
   333  001270  06E8               	decf	wreg,f,c
   334  001272  E1FD               	bnz	clear_1
   335                           
   336                           ; Clear objects allocated to COMRAM (44 bytes)
   337  001274  EE00  F001         	lfsr	0,__pbssCOMRAM
   338  001278  0E2C               	movlw	44
   339  00127A                     clear_2:
   340  00127A  6AEE               	clrf	postinc0,c
   341  00127C  06E8               	decf	wreg,f,c
   342  00127E  E1FD               	bnz	clear_2
   343                           
   344                           ; Initialize objects allocated to COMRAM (4 bytes)
   345                           ; load TBLPTR registers with __pidataCOMRAM
   346  001280  0E2A               	movlw	low __pidataCOMRAM
   347  001282  6EF6               	movwf	tblptrl,c
   348  001284  0E14               	movlw	high __pidataCOMRAM
   349  001286  6EF7               	movwf	tblptrh,c
   350  001288  0E00               	movlw	low (__pidataCOMRAM shr (0+16))
   351  00128A  6EF8               	movwf	tblptru,c
   352  00128C  EE00  F04B         	lfsr	0,__pdataCOMRAM
   353  001290  EE10 F004          	lfsr	1,4
   354  001294                     copy_data0:
   355  001294  0009               	tblrd		*+
   356  001296  CFF5 FFEE          	movff	tablat,postinc0
   357  00129A  50E5               	movf	postdec1,w,c
   358  00129C  50E1               	movf	fsr1l,w,c
   359  00129E  E1FA               	bnz	copy_data0
   360  0012A0                     end_of_initialization:
   361                           	opt stack 0
   362  0012A0                     __end_of__initialization:
   363                           	opt stack 0
   364  0012A0  0E00               	movlw	low (__Lmediumconst shr (0+16))
   365  0012A2  6EF8               	movwf	tblptru,c
   366  0012A4  0100               	movlb	0
   367  0012A6  EFF7  F009         	goto	_main	;jump to C main() function
   368                           tblptru	equ	0xFF8
   369                           tblptrh	equ	0xFF7
   370                           tblptrl	equ	0xFF6
   371                           tablat	equ	0xFF5
   372                           postinc0	equ	0xFEE
   373                           wreg	equ	0xFE8
   374                           postdec1	equ	0xFE5
   375                           fsr1l	equ	0xFE1
   376                           
   377                           	psect	bssCOMRAM
   378  000001                     __pbssCOMRAM:
   379                           	opt stack 0
   380  000001                     _Flags:
   381                           	opt stack 0
   382  000001                     	ds	1
   383  000002                     _TimerFlag:
   384                           	opt stack 0
   385  000002                     	ds	1
   386  000003                     _TmrRxd1:
   387                           	opt stack 0
   388  000003                     	ds	1
   389  000004                     _TmrRxd2:
   390                           	opt stack 0
   391  000004                     	ds	1
   392  000005                     __Addr:
   393                           	opt stack 0
   394  000005                     	ds	1
   395  000006                     _i2c_error_flag:
   396                           	opt stack 0
   397  000006                     	ds	1
   398  000007                     _keypad_col1:
   399                           	opt stack 0
   400  000007                     	ds	1
   401  000008                     _keypad_col2:
   402                           	opt stack 0
   403  000008                     	ds	1
   404  000009                     _keypad_col3:
   405                           	opt stack 0
   406  000009                     	ds	1
   407  00000A                     _keypad_col4:
   408                           	opt stack 0
   409  00000A                     	ds	1
   410  00000B                     _keypad_mode:
   411                           	opt stack 0
   412  00000B                     	ds	1
   413  00000C                     _keypad_row1:
   414                           	opt stack 0
   415  00000C                     	ds	1
   416  00000D                     _keypad_row2:
   417                           	opt stack 0
   418  00000D                     	ds	1
   419  00000E                     _keypad_row3:
   420                           	opt stack 0
   421  00000E                     	ds	1
   422  00000F                     _keypad_row4:
   423                           	opt stack 0
   424  00000F                     	ds	1
   425  000010                     _kstate:
   426                           	opt stack 0
   427  000010                     	ds	1
   428  000011                     _lcd_d0:
   429                           	opt stack 0
   430  000011                     	ds	1
   431  000012                     _lcd_d1:
   432                           	opt stack 0
   433  000012                     	ds	1
   434  000013                     _lcd_d2:
   435                           	opt stack 0
   436  000013                     	ds	1
   437  000014                     _lcd_d3:
   438                           	opt stack 0
   439  000014                     	ds	1
   440  000015                     _lcd_d4:
   441                           	opt stack 0
   442  000015                     	ds	1
   443  000016                     _lcd_d5:
   444                           	opt stack 0
   445  000016                     	ds	1
   446  000017                     _lcd_d6:
   447                           	opt stack 0
   448  000017                     	ds	1
   449  000018                     _lcd_d7:
   450                           	opt stack 0
   451  000018                     	ds	1
   452  000019                     _lcd_en:
   453                           	opt stack 0
   454  000019                     	ds	1
   455  00001A                     _lcd_mode:
   456                           	opt stack 0
   457  00001A                     	ds	1
   458  00001B                     _lcd_rs:
   459                           	opt stack 0
   460  00001B                     	ds	1
   461  00001C                     _spi_mode:
   462                           	opt stack 0
   463  00001C                     	ds	1
   464  00001D                     _uart1_cr_cnt:
   465                           	opt stack 0
   466  00001D                     	ds	1
   467  00001E                     _uart1_lf_cnt:
   468                           	opt stack 0
   469  00001E                     	ds	1
   470  00001F                     _uart1_rx_char:
   471                           	opt stack 0
   472  00001F                     	ds	1
   473  000020                     _uart1_rx_cnt:
   474                           	opt stack 0
   475  000020                     	ds	1
   476  000021                     _uart1_rx_pos:
   477                           	opt stack 0
   478  000021                     	ds	1
   479  000022                     _uart1_rx_ready:
   480                           	opt stack 0
   481  000022                     	ds	1
   482  000023                     _uart1_tx_cnt:
   483                           	opt stack 0
   484  000023                     	ds	1
   485  000024                     _uart1_tx_pos:
   486                           	opt stack 0
   487  000024                     	ds	1
   488  000025                     _uart2_cr_cnt:
   489                           	opt stack 0
   490  000025                     	ds	1
   491  000026                     _uart2_rx_char:
   492                           	opt stack 0
   493  000026                     	ds	1
   494  000027                     _uart2_rx_cnt:
   495                           	opt stack 0
   496  000027                     	ds	1
   497  000028                     _uart2_rx_pos:
   498                           	opt stack 0
   499  000028                     	ds	1
   500  000029                     _uart2_tx_cnt:
   501                           	opt stack 0
   502  000029                     	ds	1
   503  00002A                     _uart2_tx_pos:
   504                           	opt stack 0
   505  00002A                     	ds	1
   506  00002B                     keypadRead@keyNew:
   507                           	opt stack 0
   508  00002B                     	ds	1
   509  00002C                     keypadRead@keyOld:
   510                           	opt stack 0
   511  00002C                     	ds	1
   512                           tblptru	equ	0xFF8
   513                           tblptrh	equ	0xFF7
   514                           tblptrl	equ	0xFF6
   515                           tablat	equ	0xFF5
   516                           postinc0	equ	0xFEE
   517                           wreg	equ	0xFE8
   518                           postdec1	equ	0xFE5
   519                           fsr1l	equ	0xFE1
   520                           
   521                           	psect	dataCOMRAM
   522  00004B                     __pdataCOMRAM:
   523                           	opt stack 0
   524  00004B                     _HMSec:
   525                           	opt stack 0
   526  00004B                     	ds	1
   527  00004C                     _OneSec:
   528                           	opt stack 0
   529  00004C                     	ds	1
   530  00004D                     _TmrSec:
   531                           	opt stack 0
   532  00004D                     	ds	1
   533  00004E                     _lcd_disp:
   534                           	opt stack 0
   535  00004E                     	ds	1
   536                           tblptru	equ	0xFF8
   537                           tblptrh	equ	0xFF7
   538                           tblptrl	equ	0xFF6
   539                           tablat	equ	0xFF5
   540                           postinc0	equ	0xFEE
   541                           wreg	equ	0xFE8
   542                           postdec1	equ	0xFE5
   543                           fsr1l	equ	0xFE1
   544                           
   545                           	psect	bssBANK0
   546  000060                     __pbssBANK0:
   547                           	opt stack 0
   548  000060                     _uart1_txbuf:
   549                           	opt stack 0
   550  000060                     	ds	33
   551  000081                     _uart2_txbuf:
   552                           	opt stack 0
   553  000081                     	ds	33
   554  0000A2                     _TimerArray:
   555                           	opt stack 0
   556  0000A2                     	ds	20
   557  0000B6                     _sysTick:
   558                           	opt stack 0
   559  0000B6                     	ds	4
   560  0000BA                     _INT0_InterruptHandler:
   561                           	opt stack 0
   562  0000BA                     	ds	2
   563  0000BC                     _INT1_InterruptHandler:
   564                           	opt stack 0
   565  0000BC                     	ds	2
   566  0000BE                     _INT2_InterruptHandler:
   567                           	opt stack 0
   568  0000BE                     	ds	2
   569  0000C0                     _Task1:
   570                           	opt stack 0
   571  0000C0                     	ds	1
   572  0000C1                     _Task2:
   573                           	opt stack 0
   574  0000C1                     	ds	1
   575  0000C2                     _Task3:
   576                           	opt stack 0
   577  0000C2                     	ds	1
   578  0000C3                     _Task4:
   579                           	opt stack 0
   580  0000C3                     	ds	1
   581  0000C4                     _Task5:
   582                           	opt stack 0
   583  0000C4                     	ds	1
   584  0000C5                     _Task6:
   585                           	opt stack 0
   586  0000C5                     	ds	1
   587  0000C6                     _Task7:
   588                           	opt stack 0
   589  0000C6                     	ds	1
   590  0000C7                     _Task8:
   591                           	opt stack 0
   592  0000C7                     	ds	1
   593  0000C8                     __cols:
   594                           	opt stack 0
   595  0000C8                     	ds	1
   596  0000C9                     __rows:
   597                           	opt stack 0
   598  0000C9                     	ds	1
   599  0000CA                     _lcd_cols:
   600                           	opt stack 0
   601  0000CA                     	ds	1
   602  0000CB                     _lcd_rows:
   603                           	opt stack 0
   604  0000CB                     	ds	1
   605  0000CC                     _lcd_temp:
   606                           	opt stack 0
   607  0000CC                     	ds	1
   608  0000CD                     _uart2_lf_cnt:
   609                           	opt stack 0
   610  0000CD                     	ds	1
   611  0000CE                     _uart2_rx_ready:
   612                           	opt stack 0
   613  0000CE                     	ds	1
   614  0000CF                     	ds	1
   615  0000D0                     	ds	1
   616  0000D1                     _buf:
   617                           	opt stack 0
   618  0000D1                     	ds	32
   619                           tblptru	equ	0xFF8
   620                           tblptrh	equ	0xFF7
   621                           tblptrl	equ	0xFF6
   622                           tablat	equ	0xFF5
   623                           postinc0	equ	0xFEE
   624                           wreg	equ	0xFE8
   625                           postdec1	equ	0xFE5
   626                           fsr1l	equ	0xFE1
   627                           
   628                           	psect	bssBANK1
   629  000100                     __pbssBANK1:
   630                           	opt stack 0
   631  000100                     _uart1_rxbuf:
   632                           	opt stack 0
   633  000100                     	ds	96
   634  000160                     _uart2_rxbuf:
   635                           	opt stack 0
   636  000160                     	ds	96
   637                           tblptru	equ	0xFF8
   638                           tblptrh	equ	0xFF7
   639                           tblptrl	equ	0xFF6
   640                           tablat	equ	0xFF5
   641                           postinc0	equ	0xFEE
   642                           wreg	equ	0xFE8
   643                           postdec1	equ	0xFE5
   644                           fsr1l	equ	0xFE1
   645                           
   646                           	psect	cstackBANK1
   647  0001C0                     __pcstackBANK1:
   648                           	opt stack 0
   649  0001C0                     loop@error:
   650                           	opt stack 0
   651                           
   652                           ; 1 bytes @ 0x0
   653  0001C0                     	ds	1
   654  0001C1                     loop@nDevices:
   655                           	opt stack 0
   656                           
   657                           ; 2 bytes @ 0x1
   658  0001C1                     	ds	2
   659  0001C3                     loop@address:
   660                           	opt stack 0
   661                           
   662                           ; 1 bytes @ 0x3
   663  0001C3                     	ds	1
   664                           tblptru	equ	0xFF8
   665                           tblptrh	equ	0xFF7
   666                           tblptrl	equ	0xFF6
   667                           tablat	equ	0xFF5
   668                           postinc0	equ	0xFEE
   669                           wreg	equ	0xFE8
   670                           postdec1	equ	0xFE5
   671                           fsr1l	equ	0xFE1
   672                           
   673                           	psect	cstackBANK0
   674  0000F1                     __pcstackBANK0:
   675                           	opt stack 0
   676  0000F1                     ??_sprintf:
   677  0000F1                     uart_brg_set@speed:
   678                           	opt stack 0
   679  0000F1                     i2c_init@c:
   680                           	opt stack 0
   681                           
   682                           ; 4 bytes @ 0x0
   683  0000F1                     	ds	2
   684  0000F3                     sprintf@flag:
   685                           	opt stack 0
   686                           
   687                           ; 1 bytes @ 0x2
   688  0000F3                     	ds	1
   689  0000F4                     sprintf@idx:
   690                           	opt stack 0
   691                           
   692                           ; 1 bytes @ 0x3
   693  0000F4                     	ds	1
   694  0000F5                     ??_i2c_init:
   695  0000F5                     ??_uart_brg_set:
   696  0000F5                     sprintf@ap:
   697                           	opt stack 0
   698                           
   699                           ; 2 bytes @ 0x4
   700  0000F5                     	ds	2
   701  0000F7                     sprintf@_val:
   702                           	opt stack 0
   703                           
   704                           ; 5 bytes @ 0x6
   705  0000F7                     	ds	2
   706  0000F9                     uart_brg_set@com:
   707                           	opt stack 0
   708                           
   709                           ; 1 bytes @ 0x8
   710  0000F9                     	ds	1
   711  0000FA                     uart_brg_set@brgl:
   712                           	opt stack 0
   713                           
   714                           ; 1 bytes @ 0x9
   715  0000FA                     	ds	1
   716  0000FB                     uart_brg_set@brgh:
   717                           	opt stack 0
   718                           
   719                           ; 1 bytes @ 0xA
   720  0000FB                     	ds	1
   721  0000FC                     sprintf@prec:
   722                           	opt stack 0
   723  0000FC                     Serial_begin@speed:
   724                           	opt stack 0
   725                           
   726                           ; 4 bytes @ 0xB
   727  0000FC                     	ds	1
   728  0000FD                     sprintf@c:
   729                           	opt stack 0
   730                           
   731                           ; 1 bytes @ 0xC
   732  0000FD                     	ds	3
   733                           tblptru	equ	0xFF8
   734                           tblptrh	equ	0xFF7
   735                           tblptrl	equ	0xFF6
   736                           tablat	equ	0xFF5
   737                           postinc0	equ	0xFEE
   738                           wreg	equ	0xFE8
   739                           postdec1	equ	0xFE5
   740                           fsr1l	equ	0xFE1
   741                           
   742                           	psect	cstackCOMRAM
   743  00002D                     __pcstackCOMRAM:
   744                           	opt stack 0
   745  00002D                     ??_InterruptHandlerHigh:
   746  00002D                     
   747                           ; 1 bytes @ 0x0
   748  00002D                     	ds	14
   749  00003B                     InterruptHandlerHigh@dd:
   750                           	opt stack 0
   751                           
   752                           ; 2 bytes @ 0xE
   753  00003B                     	ds	2
   754  00003D                     InterruptHandlerHigh@i:
   755                           	opt stack 0
   756                           
   757                           ; 1 bytes @ 0x10
   758  00003D                     	ds	1
   759  00003E                     ??_isdigit:
   760  00003E                     ??_analogInput:
   761  00003E                     ??_i2c_idle:
   762  00003E                     ?___lwdiv:
   763                           	opt stack 0
   764  00003E                     ?___lldiv:
   765                           	opt stack 0
   766  00003E                     init@i:
   767                           	opt stack 0
   768  00003E                     Serial_putc@p:
   769                           	opt stack 0
   770  00003E                     delay@ms:
   771                           	opt stack 0
   772  00003E                     ___lwdiv@dividend:
   773                           	opt stack 0
   774  00003E                     ___lldiv@dividend:
   775                           	opt stack 0
   776                           
   777                           ; 4 bytes @ 0x11
   778  00003E                     	ds	1
   779  00003F                     Serial_putc@d:
   780                           	opt stack 0
   781  00003F                     i2c_out@data:
   782                           	opt stack 0
   783  00003F                     _isdigit$3884:
   784                           	opt stack 0
   785                           
   786                           ; 1 bytes @ 0x12
   787  00003F                     	ds	1
   788  000040                     analogInput@ANx:
   789                           	opt stack 0
   790  000040                     i2c_out@slave_address:
   791                           	opt stack 0
   792  000040                     isdigit@c:
   793                           	opt stack 0
   794  000040                     delay@i:
   795                           	opt stack 0
   796  000040                     Serial_println@str:
   797                           	opt stack 0
   798  000040                     ___lwdiv@divisor:
   799                           	opt stack 0
   800                           
   801                           ; 2 bytes @ 0x13
   802  000040                     	ds	1
   803  000041                     analogInput@d:
   804                           	opt stack 0
   805                           
   806                           ; 1 bytes @ 0x14
   807  000041                     	ds	1
   808  000042                     pinMode@mode:
   809                           	opt stack 0
   810  000042                     ___lwdiv@counter:
   811                           	opt stack 0
   812  000042                     ___lldiv@divisor:
   813                           	opt stack 0
   814                           
   815                           ; 4 bytes @ 0x15
   816  000042                     	ds	1
   817  000043                     pinMode@pin:
   818                           	opt stack 0
   819  000043                     ___lwdiv@quotient:
   820                           	opt stack 0
   821                           
   822                           ; 2 bytes @ 0x16
   823  000043                     	ds	2
   824  000045                     ?_sprintf:
   825                           	opt stack 0
   826  000045                     sprintf@sp:
   827                           	opt stack 0
   828                           
   829                           ; 2 bytes @ 0x18
   830  000045                     	ds	1
   831  000046                     ___lldiv@quotient:
   832                           	opt stack 0
   833                           
   834                           ; 4 bytes @ 0x19
   835  000046                     	ds	1
   836  000047                     sprintf@f:
   837                           	opt stack 0
   838                           
   839                           ; 2 bytes @ 0x1A
   840  000047                     	ds	3
   841  00004A                     ___lldiv@counter:
   842                           	opt stack 0
   843                           
   844                           ; 1 bytes @ 0x1D
   845  00004A                     	ds	1
   846  00004B                     tblptru	equ	0xFF8
   847                           tblptrh	equ	0xFF7
   848                           tblptrl	equ	0xFF6
   849                           tablat	equ	0xFF5
   850                           postinc0	equ	0xFEE
   851                           wreg	equ	0xFE8
   852                           postdec1	equ	0xFE5
   853                           fsr1l	equ	0xFE1
   854                           
   855                           ; 0 bytes @ 0x1E
   856 ;;
   857 ;;Main: autosize = 0, tempsize = 0, incstack = 0, save=0
   858 ;;
   859 ;; *************** function _main *****************
   860 ;; Defined at:
   861 ;;		line 447 in file "../../picuno/picuno.c"
   862 ;; Parameters:    Size  Location     Type
   863 ;;		None
   864 ;; Auto vars:     Size  Location     Type
   865 ;;		None
   866 ;; Return value:  Size  Location     Type
   867 ;;		None               void
   868 ;; Registers used:
   869 ;;		wreg, fsr0l, fsr0h, fsr2l, fsr2h, status,2, status,0, tblptrl, tblptrh, tblptru, prodl, prodh, cstack
   870 ;; Tracked objects:
   871 ;;		On entry : 0/0
   872 ;;		On exit  : 0/0
   873 ;;		Unchanged: 0/0
   874 ;; Data sizes:     COMRAM   BANK0   BANK1   BANK2   BANK3   BANK4   BANK5
   875 ;;      Params:         0       0       0       0       0       0       0
   876 ;;      Locals:         0       0       0       0       0       0       0
   877 ;;      Temps:          0       0       0       0       0       0       0
   878 ;;      Totals:         0       0       0       0       0       0       0
   879 ;;Total ram usage:        0 bytes
   880 ;; Hardware stack levels required when called:    7
   881 ;; This function calls:
   882 ;;		_init
   883 ;;		_loop
   884 ;;		_setup
   885 ;;		_sync
   886 ;;		_task
   887 ;; This function is called by:
   888 ;;		Startup code after reset
   889 ;; This function uses a non-reentrant model
   890 ;;
   891                           
   892                           	psect	text0
   893  0013EE                     __ptext0:
   894                           	opt stack 0
   895  0013EE                     _main:
   896                           	opt stack 24
   897                           
   898                           ;picuno.c: 449: init();
   899                           
   900                           ;incstack = 0
   901  0013EE  ECD7  F007         	call	_init	;wreg free
   902                           
   903                           ;picuno.c: 450: setup();
   904  0013F2  EC7B  F009         	call	_setup	;wreg free
   905  0013F6                     l492:
   906  0013F6  0004               	clrwdt		;# 
   907                           
   908                           ;picuno.c: 454: sync();
   909  0013F8  EC03  F00A         	call	_sync	;wreg free
   910                           
   911                           ;picuno.c: 455: loop();
   912  0013FC  EC80  F007         	call	_loop	;wreg free
   913                           
   914                           ;picuno.c: 456: task();
   915  001400  EC19  F00A         	call	_task	;wreg free
   916  001404  D7F8               	goto	l492
   917  001406                     __end_of_main:
   918                           	opt stack 0
   919                           tblptru	equ	0xFF8
   920                           tblptrh	equ	0xFF7
   921                           tblptrl	equ	0xFF6
   922                           tablat	equ	0xFF5
   923                           postinc0	equ	0xFEE
   924                           wreg	equ	0xFE8
   925                           postdec1	equ	0xFE5
   926                           fsr1l	equ	0xFE1
   927                           
   928 ;; *************** function _task *****************
   929 ;; Defined at:
   930 ;;		line 419 in file "../../picuno/picuno.c"
   931 ;; Parameters:    Size  Location     Type
   932 ;;		None
   933 ;; Auto vars:     Size  Location     Type
   934 ;;		None
   935 ;; Return value:  Size  Location     Type
   936 ;;		None               void
   937 ;; Registers used:
   938 ;;		None
   939 ;; Tracked objects:
   940 ;;		On entry : 0/0
   941 ;;		On exit  : 0/0
   942 ;;		Unchanged: 0/0
   943 ;; Data sizes:     COMRAM   BANK0   BANK1   BANK2   BANK3   BANK4   BANK5
   944 ;;      Params:         0       0       0       0       0       0       0
   945 ;;      Locals:         0       0       0       0       0       0       0
   946 ;;      Temps:          0       0       0       0       0       0       0
   947 ;;      Totals:         0       0       0       0       0       0       0
   948 ;;Total ram usage:        0 bytes
   949 ;; Hardware stack levels used:    1
   950 ;; Hardware stack levels required when called:    3
   951 ;; This function calls:
   952 ;;		Nothing
   953 ;; This function is called by:
   954 ;;		_main
   955 ;; This function uses a non-reentrant model
   956 ;;
   957                           
   958                           	psect	text1
   959  001432                     __ptext1:
   960                           	opt stack 0
   961  001432                     _task:
   962                           	opt stack 27
   963                           
   964                           ;incstack = 0
   965  001432  0012               	return	
   966  001434                     __end_of_task:
   967                           	opt stack 0
   968                           tblptru	equ	0xFF8
   969                           tblptrh	equ	0xFF7
   970                           tblptrl	equ	0xFF6
   971                           tablat	equ	0xFF5
   972                           postinc0	equ	0xFEE
   973                           wreg	equ	0xFE8
   974                           postdec1	equ	0xFE5
   975                           fsr1l	equ	0xFE1
   976                           
   977 ;; *************** function _sync *****************
   978 ;; Defined at:
   979 ;;		line 280 in file "../../picuno/picuno.c"
   980 ;; Parameters:    Size  Location     Type
   981 ;;		None
   982 ;; Auto vars:     Size  Location     Type
   983 ;;		None
   984 ;; Return value:  Size  Location     Type
   985 ;;		None               void
   986 ;; Registers used:
   987 ;;		None
   988 ;; Tracked objects:
   989 ;;		On entry : 0/0
   990 ;;		On exit  : 0/0
   991 ;;		Unchanged: 0/0
   992 ;; Data sizes:     COMRAM   BANK0   BANK1   BANK2   BANK3   BANK4   BANK5
   993 ;;      Params:         0       0       0       0       0       0       0
   994 ;;      Locals:         0       0       0       0       0       0       0
   995 ;;      Temps:          0       0       0       0       0       0       0
   996 ;;      Totals:         0       0       0       0       0       0       0
   997 ;;Total ram usage:        0 bytes
   998 ;; Hardware stack levels used:    1
   999 ;; Hardware stack levels required when called:    3
  1000 ;; This function calls:
  1001 ;;		Nothing
  1002 ;; This function is called by:
  1003 ;;		_main
  1004 ;; This function uses a non-reentrant model
  1005 ;;
  1006                           
  1007                           	psect	text2
  1008  001406                     __ptext2:
  1009                           	opt stack 0
  1010  001406                     _sync:
  1011                           	opt stack 27
  1012                           
  1013                           ;picuno.c: 283: Flags.Bit.bit7 = 0;
  1014                           
  1015                           ;incstack = 0
  1016  001406  9E01               	bcf	_Flags,7,c
  1017                           
  1018                           ;picuno.c: 284: if(Flags.Bit.bit0)
  1019  001408  A001               	btfss	_Flags,0,c
  1020  00140A  0012               	return	
  1021                           
  1022                           ;picuno.c: 285: {
  1023                           ;picuno.c: 286: Flags.Bit.bit0 = 0;
  1024  00140C  9001               	bcf	_Flags,0,c
  1025                           
  1026                           ;picuno.c: 287: Flags.Bit.bit7 = 1;
  1027  00140E  8E01               	bsf	_Flags,7,c
  1028  001410  0012               	return	
  1029  001412                     __end_of_sync:
  1030                           	opt stack 0
  1031                           tblptru	equ	0xFF8
  1032                           tblptrh	equ	0xFF7
  1033                           tblptrl	equ	0xFF6
  1034                           tablat	equ	0xFF5
  1035                           postinc0	equ	0xFEE
  1036                           wreg	equ	0xFE8
  1037                           postdec1	equ	0xFE5
  1038                           fsr1l	equ	0xFE1
  1039                           
  1040 ;; *************** function _setup *****************
  1041 ;; Defined at:
  1042 ;;		line 12 in file "i2c_scanner.c"
  1043 ;; Parameters:    Size  Location     Type
  1044 ;;		None
  1045 ;; Auto vars:     Size  Location     Type
  1046 ;;		None
  1047 ;; Return value:  Size  Location     Type
  1048 ;;		None               void
  1049 ;; Registers used:
  1050 ;;		wreg, fsr0l, fsr0h, fsr2l, fsr2h, status,2, status,0, tblptrl, tblptrh, tblptru, prodl, prodh, cstack
  1051 ;; Tracked objects:
  1052 ;;		On entry : 0/0
  1053 ;;		On exit  : 0/0
  1054 ;;		Unchanged: 0/0
  1055 ;; Data sizes:     COMRAM   BANK0   BANK1   BANK2   BANK3   BANK4   BANK5
  1056 ;;      Params:         0       0       0       0       0       0       0
  1057 ;;      Locals:         0       0       0       0       0       0       0
  1058 ;;      Temps:          0       0       0       0       0       0       0
  1059 ;;      Totals:         0       0       0       0       0       0       0
  1060 ;;Total ram usage:        0 bytes
  1061 ;; Hardware stack levels used:    1
  1062 ;; Hardware stack levels required when called:    6
  1063 ;; This function calls:
  1064 ;;		_Serial_begin
  1065 ;;		_Serial_println
  1066 ;;		_i2c_init
  1067 ;; This function is called by:
  1068 ;;		_main
  1069 ;; This function uses a non-reentrant model
  1070 ;;
  1071                           
  1072                           	psect	text3
  1073  0012F6                     __ptext3:
  1074                           	opt stack 0
  1075  0012F6                     _setup:
  1076                           	opt stack 24
  1077                           
  1078                           ;i2c_scanner.c: 13: Serial_begin(9600);
  1079                           
  1080                           ;incstack = 0
  1081  0012F6  0E80               	movlw	128
  1082  0012F8  0100               	movlb	0	; () banked
  1083  0012FA  6FFC               	movwf	Serial_begin@speed& (0+255),b
  1084  0012FC  0E25               	movlw	37
  1085  0012FE  0100               	movlb	0	; () banked
  1086  001300  6FFD               	movwf	(Serial_begin@speed+1)& (0+255),b
  1087  001302  0E00               	movlw	0
  1088  001304  0100               	movlb	0	; () banked
  1089  001306  6FFE               	movwf	(Serial_begin@speed+2)& (0+255),b
  1090  001308  0E00               	movlw	0
  1091  00130A  0100               	movlb	0	; () banked
  1092  00130C  6FFF               	movwf	(Serial_begin@speed+3)& (0+255),b
  1093  00130E  ECB4  F009         	call	_Serial_begin	;wreg free
  1094                           
  1095                           ;i2c_scanner.c: 14: i2c_init(100000);
  1096  001312  0EA0               	movlw	160
  1097  001314  0100               	movlb	0	; () banked
  1098  001316  6FF1               	movwf	i2c_init@c& (0+255),b
  1099  001318  0E86               	movlw	134
  1100  00131A  0100               	movlb	0	; () banked
  1101  00131C  6FF2               	movwf	(i2c_init@c+1)& (0+255),b
  1102  00131E  0E01               	movlw	1
  1103  001320  0100               	movlb	0	; () banked
  1104  001322  6FF3               	movwf	(i2c_init@c+2)& (0+255),b
  1105  001324  0E00               	movlw	0
  1106  001326  0100               	movlb	0	; () banked
  1107  001328  6FF4               	movwf	(i2c_init@c+3)& (0+255),b
  1108  00132A  EC24  F008         	call	_i2c_init	;wreg free
  1109                           
  1110                           ;i2c_scanner.c: 15: Serial_println("\nI2C Scanner");
  1111  00132E  0E06               	movlw	high STR_1
  1112  001330  6E41               	movwf	Serial_println@str+1,c
  1113  001332  0E54               	movlw	low STR_1
  1114  001334  6E40               	movwf	Serial_println@str,c
  1115  001336  ECAD  F008         	call	_Serial_println	;wreg free
  1116  00133A  0012               	return	
  1117  00133C                     __end_of_setup:
  1118                           	opt stack 0
  1119                           tblptru	equ	0xFF8
  1120                           tblptrh	equ	0xFF7
  1121                           tblptrl	equ	0xFF6
  1122                           tablat	equ	0xFF5
  1123                           postinc0	equ	0xFEE
  1124                           wreg	equ	0xFE8
  1125                           postdec1	equ	0xFE5
  1126                           fsr1l	equ	0xFE1
  1127                           
  1128 ;; *************** function _i2c_init *****************
  1129 ;; Defined at:
  1130 ;;		line 2623 in file "../../picuno/picuno.c"
  1131 ;; Parameters:    Size  Location     Type
  1132 ;;  c               4    0[BANK0 ] unsigned long 
  1133 ;; Auto vars:     Size  Location     Type
  1134 ;;		None
  1135 ;; Return value:  Size  Location     Type
  1136 ;;		None               void
  1137 ;; Registers used:
  1138 ;;		wreg, status,2, status,0, cstack
  1139 ;; Tracked objects:
  1140 ;;		On entry : 0/0
  1141 ;;		On exit  : 0/0
  1142 ;;		Unchanged: 0/0
  1143 ;; Data sizes:     COMRAM   BANK0   BANK1   BANK2   BANK3   BANK4   BANK5
  1144 ;;      Params:         0       4       0       0       0       0       0
  1145 ;;      Locals:         0       0       0       0       0       0       0
  1146 ;;      Temps:          0       8       0       0       0       0       0
  1147 ;;      Totals:         0      12       0       0       0       0       0
  1148 ;;Total ram usage:       12 bytes
  1149 ;; Hardware stack levels used:    1
  1150 ;; Hardware stack levels required when called:    5
  1151 ;; This function calls:
  1152 ;;		___lldiv
  1153 ;;		_pinMode
  1154 ;; This function is called by:
  1155 ;;		_setup
  1156 ;;		_lcd_init_i2c
  1157 ;; This function uses a non-reentrant model
  1158 ;;
  1159                           
  1160                           	psect	text4
  1161  001048                     __ptext4:
  1162                           	opt stack 0
  1163  001048                     _i2c_init:
  1164                           	opt stack 24
  1165                           
  1166                           ;picuno.c: 2626: SSPSTATbits.SMP = 1;
  1167                           
  1168                           ;incstack = 0
  1169  001048  8EC7               	bsf	4039,7,c	;volatile
  1170                           
  1171                           ;picuno.c: 2629: SSPCON1bits.SSPM3 = 1;
  1172  00104A  86C6               	bsf	4038,3,c	;volatile
  1173                           
  1174                           ;picuno.c: 2630: SSPCON1bits.SSPM2 = 0;
  1175  00104C  94C6               	bcf	4038,2,c	;volatile
  1176                           
  1177                           ;picuno.c: 2631: SSPCON1bits.SSPM1 = 0;
  1178  00104E  92C6               	bcf	4038,1,c	;volatile
  1179                           
  1180                           ;picuno.c: 2632: SSPCON1bits.SSPM0 = 0;
  1181  001050  90C6               	bcf	4038,0,c	;volatile
  1182                           
  1183                           ;picuno.c: 2634: SSPADD = (64000000UL /(4*c))-1;
  1184  001052  0E00               	movlw	0
  1185  001054  6E3E               	movwf	___lldiv@dividend,c
  1186  001056  0E90               	movlw	144
  1187  001058  6E3F               	movwf	___lldiv@dividend+1,c
  1188  00105A  0ED0               	movlw	208
  1189  00105C  6E40               	movwf	___lldiv@dividend+2,c
  1190  00105E  0E03               	movlw	3
  1191  001060  6E41               	movwf	___lldiv@dividend+3,c
  1192  001062  0100               	movlb	0	; () banked
  1193  001064  C0F1  F0F5         	movff	i2c_init@c,??_i2c_init
  1194  001068  0100               	movlb	0	; () banked
  1195  00106A  C0F2  F0F6         	movff	i2c_init@c+1,??_i2c_init+1
  1196  00106E  0100               	movlb	0	; () banked
  1197  001070  C0F3  F0F7         	movff	i2c_init@c+2,??_i2c_init+2
  1198  001074  0100               	movlb	0	; () banked
  1199  001076  C0F4  F0F8         	movff	i2c_init@c+3,??_i2c_init+3
  1200  00107A  0E02               	movlw	2
  1201  00107C                     u6995:
  1202  00107C  90D8               	bcf	status,0,c
  1203  00107E  0100               	movlb	0	; () banked
  1204  001080  37F5               	rlcf	??_i2c_init& (0+255),f,b
  1205  001082  37F6               	rlcf	(??_i2c_init+1)& (0+255),f,b
  1206  001084  37F7               	rlcf	(??_i2c_init+2)& (0+255),f,b
  1207  001086  37F8               	rlcf	(??_i2c_init+3)& (0+255),f,b
  1208  001088  2EE8               	decfsz	wreg,f,c
  1209  00108A  D7F8               	goto	u6995
  1210  00108C  C0F5  F042         	movff	??_i2c_init,___lldiv@divisor
  1211  001090  C0F6  F043         	movff	??_i2c_init+1,___lldiv@divisor+1
  1212  001094  C0F7  F044         	movff	??_i2c_init+2,___lldiv@divisor+2
  1213  001098  C0F8  F045         	movff	??_i2c_init+3,___lldiv@divisor+3
  1214  00109C  EC6C  F008         	call	___lldiv	;wreg free
  1215  0010A0  C03E  F0F9         	movff	?___lldiv,??_i2c_init+4
  1216  0010A4  C03F  F0FA         	movff	?___lldiv+1,??_i2c_init+5
  1217  0010A8  C040  F0FB         	movff	?___lldiv+2,??_i2c_init+6
  1218  0010AC  C041  F0FC         	movff	?___lldiv+3,??_i2c_init+7
  1219  0010B0  0100               	movlb	0	; () banked
  1220  0010B2  05F9               	decf	(??_i2c_init+4)& (0+255),w,b
  1221  0010B4  6EC8               	movwf	4040,c	;volatile
  1222                           
  1223                           ;picuno.c: 2635: pinMode(19,0x01);
  1224  0010B6  0E01               	movlw	1
  1225  0010B8  6E42               	movwf	pinMode@mode,c
  1226  0010BA  0E13               	movlw	19
  1227  0010BC  EC3A  F003         	call	_pinMode
  1228                           
  1229                           ;picuno.c: 2636: pinMode(20,0x01);
  1230  0010C0  0E01               	movlw	1
  1231  0010C2  6E42               	movwf	pinMode@mode,c
  1232  0010C4  0E14               	movlw	20
  1233  0010C6  EC3A  F003         	call	_pinMode
  1234                           
  1235                           ;picuno.c: 2639: SSPCON1bits.WCOL = 0;
  1236  0010CA  9EC6               	bcf	4038,7,c	;volatile
  1237                           
  1238                           ;picuno.c: 2642: SSPCON1bits.SSPOV = 0;
  1239  0010CC  9CC6               	bcf	4038,6,c	;volatile
  1240                           
  1241                           ;picuno.c: 2645: SSPCON1bits.SSPEN = 1;
  1242  0010CE  8AC6               	bsf	4038,5,c	;volatile
  1243                           
  1244                           ;picuno.c: 2648: SSPCON2bits.PEN = 1;
  1245  0010D0  84C5               	bsf	4037,2,c	;volatile
  1246  0010D2                     l1212:
  1247  0010D2  A4C5               	btfss	4037,2,c	;volatile
  1248  0010D4  0012               	return	
  1249  0010D6  D7FD               	goto	l1212
  1250  0010D8                     __end_of_i2c_init:
  1251                           	opt stack 0
  1252                           tblptru	equ	0xFF8
  1253                           tblptrh	equ	0xFF7
  1254                           tblptrl	equ	0xFF6
  1255                           tablat	equ	0xFF5
  1256                           postinc0	equ	0xFEE
  1257                           wreg	equ	0xFE8
  1258                           postdec1	equ	0xFE5
  1259                           fsr1l	equ	0xFE1
  1260                           status	equ	0xFD8
  1261                           
  1262 ;; *************** function _pinMode *****************
  1263 ;; Defined at:
  1264 ;;		line 494 in file "../../picuno/picuno.c"
  1265 ;; Parameters:    Size  Location     Type
  1266 ;;  pin             1    wreg     unsigned char 
  1267 ;;  mode            1   21[COMRAM] unsigned char 
  1268 ;; Auto vars:     Size  Location     Type
  1269 ;;  pin             1   22[COMRAM] unsigned char 
  1270 ;; Return value:  Size  Location     Type
  1271 ;;		None               void
  1272 ;; Registers used:
  1273 ;;		wreg, status,2, status,0, cstack
  1274 ;; Tracked objects:
  1275 ;;		On entry : 0/0
  1276 ;;		On exit  : 0/0
  1277 ;;		Unchanged: 0/0
  1278 ;; Data sizes:     COMRAM   BANK0   BANK1   BANK2   BANK3   BANK4   BANK5
  1279 ;;      Params:         1       0       0       0       0       0       0
  1280 ;;      Locals:         1       0       0       0       0       0       0
  1281 ;;      Temps:          0       0       0       0       0       0       0
  1282 ;;      Totals:         2       0       0       0       0       0       0
  1283 ;;Total ram usage:        2 bytes
  1284 ;; Hardware stack levels used:    1
  1285 ;; Hardware stack levels required when called:    4
  1286 ;; This function calls:
  1287 ;;		_analogInput
  1288 ;; This function is called by:
  1289 ;;		_i2c_init
  1290 ;;		_pulseIn
  1291 ;;		_keypad_begin34
  1292 ;;		_keypad_begin44
  1293 ;;		_lcd_init4
  1294 ;;		_lcd_init8
  1295 ;;		_pwm_on
  1296 ;; This function uses a non-reentrant model
  1297 ;;
  1298                           
  1299                           	psect	text5
  1300  000674                     __ptext5:
  1301                           	opt stack 0
  1302  000674                     _pinMode:
  1303                           	opt stack 24
  1304                           
  1305                           ;incstack = 0
  1306                           ;pinMode@pin stored from wreg
  1307  000674  6E43               	movwf	pinMode@pin,c
  1308                           
  1309                           ;picuno.c: 496: switch(pin)
  1310  000676  D23A               	goto	l4458
  1311  000678                     l502:
  1312                           
  1313                           ;picuno.c: 499: if(mode==0x00)
  1314  000678  6642               	tstfsz	pinMode@mode,c
  1315  00067A  D003               	goto	l4218
  1316                           
  1317                           ;picuno.c: 500: {
  1318                           ;picuno.c: 501: TRISAbits.TRISA0 = 0;
  1319  00067C  9092               	bcf	3986,0,c	;volatile
  1320                           
  1321                           ;picuno.c: 502: LATAbits.LATA0 = 0;
  1322  00067E  9089               	bcf	3977,0,c	;volatile
  1323                           
  1324                           ;picuno.c: 503: }
  1325  000680  0012               	return	
  1326  000682                     l4218:
  1327                           
  1328                           ;picuno.c: 504: else if(mode==0x02)
  1329  000682  5042               	movf	pinMode@mode,w,c
  1330  000684  0A02               	xorlw	2
  1331  000686  A4D8               	btfss	status,2,c
  1332  000688  D003               	goto	l4222
  1333                           
  1334                           ;picuno.c: 505: {
  1335                           ;picuno.c: 506: TRISAbits.TRISA0 = 1;
  1336  00068A  8092               	bsf	3986,0,c	;volatile
  1337                           
  1338                           ;picuno.c: 507: LATAbits.LATA0 = 0;
  1339  00068C  9089               	bcf	3977,0,c	;volatile
  1340                           
  1341                           ;picuno.c: 508: }
  1342  00068E  0012               	return	
  1343  000690                     l4222:
  1344                           
  1345                           ;picuno.c: 509: else if(mode==0x03)
  1346  000690  5042               	movf	pinMode@mode,w,c
  1347  000692  0A03               	xorlw	3
  1348  000694  A4D8               	btfss	status,2,c
  1349  000696  D005               	goto	l507
  1350                           
  1351                           ;picuno.c: 510: {
  1352                           ;picuno.c: 511: TRISAbits.TRISA0 = 1;
  1353  000698  8092               	bsf	3986,0,c	;volatile
  1354                           
  1355                           ;picuno.c: 512: analogInput(0);
  1356  00069A  0E00               	movlw	0
  1357  00069C  ECC9  F009         	call	_analogInput
  1358                           
  1359                           ;picuno.c: 513: }
  1360  0006A0  0012               	return	
  1361  0006A2                     l507:
  1362                           
  1363                           ;picuno.c: 514: else
  1364                           ;picuno.c: 515: {
  1365                           ;picuno.c: 516: TRISAbits.TRISA0 = 1;
  1366  0006A2  8092               	bsf	3986,0,c	;volatile
  1367                           
  1368                           ;picuno.c: 517: LATAbits.LATA0 = 0;
  1369  0006A4  9089               	bcf	3977,0,c	;volatile
  1370  0006A6  0012               	return	
  1371  0006A8                     l510:
  1372                           
  1373                           ;picuno.c: 521: if(mode==0x00)
  1374  0006A8  6642               	tstfsz	pinMode@mode,c
  1375  0006AA  D003               	goto	l4230
  1376                           
  1377                           ;picuno.c: 522: {
  1378                           ;picuno.c: 523: TRISAbits.TRISA1 = 0;
  1379  0006AC  9292               	bcf	3986,1,c	;volatile
  1380                           
  1381                           ;picuno.c: 524: LATAbits.LATA1 = 0;
  1382  0006AE  9289               	bcf	3977,1,c	;volatile
  1383                           
  1384                           ;picuno.c: 525: }
  1385  0006B0  0012               	return	
  1386  0006B2                     l4230:
  1387                           
  1388                           ;picuno.c: 526: else if(mode==0x02)
  1389  0006B2  5042               	movf	pinMode@mode,w,c
  1390  0006B4  0A02               	xorlw	2
  1391  0006B6  A4D8               	btfss	status,2,c
  1392  0006B8  D003               	goto	l4234
  1393                           
  1394                           ;picuno.c: 527: {
  1395                           ;picuno.c: 528: TRISAbits.TRISA1 = 1;
  1396  0006BA  8292               	bsf	3986,1,c	;volatile
  1397                           
  1398                           ;picuno.c: 529: LATAbits.LATA1 = 0;
  1399  0006BC  9289               	bcf	3977,1,c	;volatile
  1400                           
  1401                           ;picuno.c: 530: }
  1402  0006BE  0012               	return	
  1403  0006C0                     l4234:
  1404                           
  1405                           ;picuno.c: 531: else if(mode==0x03)
  1406  0006C0  5042               	movf	pinMode@mode,w,c
  1407  0006C2  0A03               	xorlw	3
  1408  0006C4  A4D8               	btfss	status,2,c
  1409  0006C6  D005               	goto	l515
  1410                           
  1411                           ;picuno.c: 532: {
  1412                           ;picuno.c: 533: TRISAbits.TRISA1 = 1;
  1413  0006C8  8292               	bsf	3986,1,c	;volatile
  1414                           
  1415                           ;picuno.c: 534: analogInput(1);
  1416  0006CA  0E01               	movlw	1
  1417  0006CC  ECC9  F009         	call	_analogInput
  1418                           
  1419                           ;picuno.c: 535: }
  1420  0006D0  0012               	return	
  1421  0006D2                     l515:
  1422                           
  1423                           ;picuno.c: 536: else
  1424                           ;picuno.c: 537: {
  1425                           ;picuno.c: 538: TRISAbits.TRISA1 = 1;
  1426  0006D2  8292               	bsf	3986,1,c	;volatile
  1427                           
  1428                           ;picuno.c: 539: LATAbits.LATA1 = 0;
  1429  0006D4  9289               	bcf	3977,1,c	;volatile
  1430  0006D6  0012               	return	
  1431  0006D8                     l517:
  1432                           
  1433                           ;picuno.c: 543: if(mode==0x00)
  1434  0006D8  6642               	tstfsz	pinMode@mode,c
  1435  0006DA  D003               	goto	l4242
  1436                           
  1437                           ;picuno.c: 544: {
  1438                           ;picuno.c: 545: TRISAbits.TRISA2 = 0;
  1439  0006DC  9492               	bcf	3986,2,c	;volatile
  1440                           
  1441                           ;picuno.c: 546: LATAbits.LATA2 = 0;
  1442  0006DE  9489               	bcf	3977,2,c	;volatile
  1443                           
  1444                           ;picuno.c: 547: }
  1445  0006E0  0012               	return	
  1446  0006E2                     l4242:
  1447                           
  1448                           ;picuno.c: 548: else if(mode==0x02)
  1449  0006E2  5042               	movf	pinMode@mode,w,c
  1450  0006E4  0A02               	xorlw	2
  1451  0006E6  A4D8               	btfss	status,2,c
  1452  0006E8  D003               	goto	l4246
  1453                           
  1454                           ;picuno.c: 549: {
  1455                           ;picuno.c: 550: TRISAbits.TRISA2 = 1;
  1456  0006EA  8492               	bsf	3986,2,c	;volatile
  1457                           
  1458                           ;picuno.c: 551: LATAbits.LATA2 = 0;
  1459  0006EC  9489               	bcf	3977,2,c	;volatile
  1460                           
  1461                           ;picuno.c: 552: }
  1462  0006EE  0012               	return	
  1463  0006F0                     l4246:
  1464                           
  1465                           ;picuno.c: 553: else if(mode==0x03)
  1466  0006F0  5042               	movf	pinMode@mode,w,c
  1467  0006F2  0A03               	xorlw	3
  1468  0006F4  A4D8               	btfss	status,2,c
  1469  0006F6  D005               	goto	l522
  1470                           
  1471                           ;picuno.c: 554: {
  1472                           ;picuno.c: 555: TRISAbits.TRISA2 = 1;
  1473  0006F8  8492               	bsf	3986,2,c	;volatile
  1474                           
  1475                           ;picuno.c: 556: analogInput(2);
  1476  0006FA  0E02               	movlw	2
  1477  0006FC  ECC9  F009         	call	_analogInput
  1478                           
  1479                           ;picuno.c: 557: }
  1480  000700  0012               	return	
  1481  000702                     l522:
  1482                           
  1483                           ;picuno.c: 558: else
  1484                           ;picuno.c: 559: {
  1485                           ;picuno.c: 560: TRISAbits.TRISA2 = 1;
  1486  000702  8492               	bsf	3986,2,c	;volatile
  1487                           
  1488                           ;picuno.c: 561: LATAbits.LATA2 = 0;
  1489  000704  9489               	bcf	3977,2,c	;volatile
  1490  000706  0012               	return	
  1491  000708                     l524:
  1492                           
  1493                           ;picuno.c: 565: if(mode==0x00)
  1494  000708  6642               	tstfsz	pinMode@mode,c
  1495  00070A  D003               	goto	l4254
  1496                           
  1497                           ;picuno.c: 566: {
  1498                           ;picuno.c: 567: TRISAbits.TRISA3 = 0;
  1499  00070C  9692               	bcf	3986,3,c	;volatile
  1500                           
  1501                           ;picuno.c: 568: LATAbits.LATA3 = 0;
  1502  00070E  9689               	bcf	3977,3,c	;volatile
  1503                           
  1504                           ;picuno.c: 569: }
  1505  000710  0012               	return	
  1506  000712                     l4254:
  1507                           
  1508                           ;picuno.c: 570: else if(mode==0x02)
  1509  000712  5042               	movf	pinMode@mode,w,c
  1510  000714  0A02               	xorlw	2
  1511  000716  A4D8               	btfss	status,2,c
  1512  000718  D003               	goto	l4258
  1513                           
  1514                           ;picuno.c: 571: {
  1515                           ;picuno.c: 572: TRISAbits.TRISA3 = 1;
  1516  00071A  8692               	bsf	3986,3,c	;volatile
  1517                           
  1518                           ;picuno.c: 573: LATAbits.LATA3 = 0;
  1519  00071C  9689               	bcf	3977,3,c	;volatile
  1520                           
  1521                           ;picuno.c: 574: }
  1522  00071E  0012               	return	
  1523  000720                     l4258:
  1524                           
  1525                           ;picuno.c: 575: else if(mode==0x03)
  1526  000720  5042               	movf	pinMode@mode,w,c
  1527  000722  0A03               	xorlw	3
  1528  000724  A4D8               	btfss	status,2,c
  1529  000726  D005               	goto	l529
  1530                           
  1531                           ;picuno.c: 576: {
  1532                           ;picuno.c: 577: TRISAbits.TRISA3 = 1;
  1533  000728  8692               	bsf	3986,3,c	;volatile
  1534                           
  1535                           ;picuno.c: 578: analogInput(3);
  1536  00072A  0E03               	movlw	3
  1537  00072C  ECC9  F009         	call	_analogInput
  1538                           
  1539                           ;picuno.c: 579: }
  1540  000730  0012               	return	
  1541  000732                     l529:
  1542                           
  1543                           ;picuno.c: 580: else
  1544                           ;picuno.c: 581: {
  1545                           ;picuno.c: 582: TRISAbits.TRISA3 = 1;
  1546  000732  8692               	bsf	3986,3,c	;volatile
  1547                           
  1548                           ;picuno.c: 583: LATAbits.LATA3 = 0;
  1549  000734  9689               	bcf	3977,3,c	;volatile
  1550  000736  0012               	return	
  1551  000738                     l531:
  1552                           
  1553                           ;picuno.c: 590: if(mode==0x00)
  1554  000738  6642               	tstfsz	pinMode@mode,c
  1555  00073A  D003               	goto	l4266
  1556                           
  1557                           ;picuno.c: 591: {
  1558                           ;picuno.c: 592: TRISAbits.TRISA4 = 0;
  1559  00073C  9892               	bcf	3986,4,c	;volatile
  1560                           
  1561                           ;picuno.c: 593: LATAbits.LATA4 = 0;
  1562  00073E  9889               	bcf	3977,4,c	;volatile
  1563                           
  1564                           ;picuno.c: 594: }
  1565  000740  0012               	return	
  1566  000742                     l4266:
  1567                           
  1568                           ;picuno.c: 595: else if(mode==0x02)
  1569  000742  5042               	movf	pinMode@mode,w,c
  1570  000744  0A02               	xorlw	2
  1571  000746  A4D8               	btfss	status,2,c
  1572  000748  D003               	goto	l534
  1573                           
  1574                           ;picuno.c: 596: {
  1575                           ;picuno.c: 597: TRISAbits.TRISA4 = 1;
  1576  00074A  8892               	bsf	3986,4,c	;volatile
  1577                           
  1578                           ;picuno.c: 598: LATAbits.LATA4 = 0;
  1579  00074C  9889               	bcf	3977,4,c	;volatile
  1580                           
  1581                           ;picuno.c: 599: }
  1582  00074E  0012               	return	
  1583  000750                     l534:
  1584                           
  1585                           ;picuno.c: 600: else
  1586                           ;picuno.c: 601: {
  1587                           ;picuno.c: 602: TRISAbits.TRISA4 = 1;
  1588  000750  8892               	bsf	3986,4,c	;volatile
  1589                           
  1590                           ;picuno.c: 603: LATAbits.LATA4 = 0;
  1591  000752  9889               	bcf	3977,4,c	;volatile
  1592  000754  0012               	return	
  1593  000756                     l536:
  1594                           
  1595                           ;picuno.c: 609: if(mode==0x00)
  1596  000756  6642               	tstfsz	pinMode@mode,c
  1597  000758  D003               	goto	l4272
  1598                           
  1599                           ;picuno.c: 610: {
  1600                           ;picuno.c: 611: TRISAbits.TRISA5 = 0;
  1601  00075A  9A92               	bcf	3986,5,c	;volatile
  1602                           
  1603                           ;picuno.c: 612: LATAbits.LATA5 = 0;
  1604  00075C  9A89               	bcf	3977,5,c	;volatile
  1605                           
  1606                           ;picuno.c: 613: }
  1607  00075E  0012               	return	
  1608  000760                     l4272:
  1609                           
  1610                           ;picuno.c: 614: else if(mode==0x02)
  1611  000760  5042               	movf	pinMode@mode,w,c
  1612  000762  0A02               	xorlw	2
  1613  000764  A4D8               	btfss	status,2,c
  1614  000766  D003               	goto	l4276
  1615                           
  1616                           ;picuno.c: 615: {
  1617                           ;picuno.c: 616: TRISAbits.TRISA5 = 1;
  1618  000768  8A92               	bsf	3986,5,c	;volatile
  1619                           
  1620                           ;picuno.c: 617: LATAbits.LATA5 = 0;
  1621  00076A  9A89               	bcf	3977,5,c	;volatile
  1622                           
  1623                           ;picuno.c: 618: }
  1624  00076C  0012               	return	
  1625  00076E                     l4276:
  1626                           
  1627                           ;picuno.c: 619: else if(mode==0x03)
  1628  00076E  5042               	movf	pinMode@mode,w,c
  1629  000770  0A03               	xorlw	3
  1630  000772  A4D8               	btfss	status,2,c
  1631  000774  D005               	goto	l541
  1632                           
  1633                           ;picuno.c: 620: {
  1634                           ;picuno.c: 621: TRISAbits.TRISA5 = 1;
  1635  000776  8A92               	bsf	3986,5,c	;volatile
  1636                           
  1637                           ;picuno.c: 622: analogInput(4);
  1638  000778  0E04               	movlw	4
  1639  00077A  ECC9  F009         	call	_analogInput
  1640                           
  1641                           ;picuno.c: 623: }
  1642  00077E  0012               	return	
  1643  000780                     l541:
  1644                           
  1645                           ;picuno.c: 624: else
  1646                           ;picuno.c: 625: {
  1647                           ;picuno.c: 626: TRISAbits.TRISA5 = 1;
  1648  000780  8A92               	bsf	3986,5,c	;volatile
  1649                           
  1650                           ;picuno.c: 627: LATAbits.LATA5 = 0;
  1651  000782  9A89               	bcf	3977,5,c	;volatile
  1652  000784  0012               	return	
  1653  000786                     l543:
  1654                           
  1655                           ;picuno.c: 631: if(mode==0x00)
  1656  000786  6642               	tstfsz	pinMode@mode,c
  1657  000788  D003               	goto	l4284
  1658                           
  1659                           ;picuno.c: 632: {
  1660                           ;picuno.c: 633: TRISAbits.TRISA6 = 0;
  1661  00078A  9C92               	bcf	3986,6,c	;volatile
  1662                           
  1663                           ;picuno.c: 634: LATAbits.LATA6 = 0;
  1664  00078C  9C89               	bcf	3977,6,c	;volatile
  1665                           
  1666                           ;picuno.c: 635: }
  1667  00078E  0012               	return	
  1668  000790                     l4284:
  1669                           
  1670                           ;picuno.c: 636: else if(mode==0x02)
  1671  000790  5042               	movf	pinMode@mode,w,c
  1672  000792  0A02               	xorlw	2
  1673  000794  A4D8               	btfss	status,2,c
  1674  000796  D003               	goto	l546
  1675                           
  1676                           ;picuno.c: 637: {
  1677                           ;picuno.c: 638: TRISAbits.TRISA6 = 1;
  1678  000798  8C92               	bsf	3986,6,c	;volatile
  1679                           
  1680                           ;picuno.c: 639: LATAbits.LATA6 = 0;
  1681  00079A  9C89               	bcf	3977,6,c	;volatile
  1682                           
  1683                           ;picuno.c: 640: }
  1684  00079C  0012               	return	
  1685  00079E                     l546:
  1686                           
  1687                           ;picuno.c: 641: else
  1688                           ;picuno.c: 642: {
  1689                           ;picuno.c: 643: TRISAbits.TRISA6 = 1;
  1690  00079E  8C92               	bsf	3986,6,c	;volatile
  1691                           
  1692                           ;picuno.c: 644: LATAbits.LATA6 = 0;
  1693  0007A0  9C89               	bcf	3977,6,c	;volatile
  1694  0007A2  0012               	return	
  1695  0007A4                     l548:
  1696                           
  1697                           ;picuno.c: 650: if(mode==0x00)
  1698  0007A4  6642               	tstfsz	pinMode@mode,c
  1699  0007A6  D003               	goto	l4290
  1700                           
  1701                           ;picuno.c: 651: {
  1702                           ;picuno.c: 652: TRISAbits.TRISA7 = 0;
  1703  0007A8  9E92               	bcf	3986,7,c	;volatile
  1704                           
  1705                           ;picuno.c: 653: LATAbits.LATA7 = 0;
  1706  0007AA  9E89               	bcf	3977,7,c	;volatile
  1707                           
  1708                           ;picuno.c: 654: }
  1709  0007AC  0012               	return	
  1710  0007AE                     l4290:
  1711                           
  1712                           ;picuno.c: 655: else if(mode==0x02)
  1713  0007AE  5042               	movf	pinMode@mode,w,c
  1714  0007B0  0A02               	xorlw	2
  1715  0007B2  A4D8               	btfss	status,2,c
  1716  0007B4  D003               	goto	l551
  1717                           
  1718                           ;picuno.c: 656: {
  1719                           ;picuno.c: 657: TRISAbits.TRISA7 = 1;
  1720  0007B6  8E92               	bsf	3986,7,c	;volatile
  1721                           
  1722                           ;picuno.c: 658: LATAbits.LATA7 = 0;
  1723  0007B8  9E89               	bcf	3977,7,c	;volatile
  1724                           
  1725                           ;picuno.c: 659: }
  1726  0007BA  0012               	return	
  1727  0007BC                     l551:
  1728                           
  1729                           ;picuno.c: 660: else
  1730                           ;picuno.c: 661: {
  1731                           ;picuno.c: 662: TRISAbits.TRISA7 = 1;
  1732  0007BC  8E92               	bsf	3986,7,c	;volatile
  1733                           
  1734                           ;picuno.c: 663: LATAbits.LATA7 = 0;
  1735  0007BE  9E89               	bcf	3977,7,c	;volatile
  1736  0007C0  0012               	return	
  1737  0007C2                     l553:
  1738                           
  1739                           ;picuno.c: 668: if(mode==0x00)
  1740  0007C2  6642               	tstfsz	pinMode@mode,c
  1741  0007C4  D003               	goto	l4296
  1742                           
  1743                           ;picuno.c: 669: {
  1744                           ;picuno.c: 670: TRISBbits.TRISB0 = 0;
  1745  0007C6  9093               	bcf	3987,0,c	;volatile
  1746                           
  1747                           ;picuno.c: 671: LATBbits.LATB0 = 0;
  1748  0007C8  908A               	bcf	3978,0,c	;volatile
  1749                           
  1750                           ;picuno.c: 672: }
  1751  0007CA  0012               	return	
  1752  0007CC                     l4296:
  1753                           
  1754                           ;picuno.c: 673: else if(mode==0x02)
  1755  0007CC  5042               	movf	pinMode@mode,w,c
  1756  0007CE  0A02               	xorlw	2
  1757  0007D0  A4D8               	btfss	status,2,c
  1758  0007D2  D003               	goto	l556
  1759                           
  1760                           ;picuno.c: 674: {
  1761                           ;picuno.c: 675: TRISBbits.TRISB0 = 1;
  1762  0007D4  8093               	bsf	3987,0,c	;volatile
  1763                           
  1764                           ;picuno.c: 676: LATBbits.LATB0 = 0;
  1765  0007D6  908A               	bcf	3978,0,c	;volatile
  1766                           
  1767                           ;picuno.c: 677: }
  1768  0007D8  0012               	return	
  1769  0007DA                     l556:
  1770                           
  1771                           ;picuno.c: 678: else
  1772                           ;picuno.c: 679: {
  1773                           ;picuno.c: 680: TRISBbits.TRISB0 = 1;
  1774  0007DA  8093               	bsf	3987,0,c	;volatile
  1775                           
  1776                           ;picuno.c: 681: LATBbits.LATB0 = 0;
  1777  0007DC  908A               	bcf	3978,0,c	;volatile
  1778  0007DE  0012               	return	
  1779  0007E0                     l558:
  1780                           
  1781                           ;picuno.c: 685: if(mode==0x00)
  1782  0007E0  6642               	tstfsz	pinMode@mode,c
  1783  0007E2  D003               	goto	l4302
  1784                           
  1785                           ;picuno.c: 686: {
  1786                           ;picuno.c: 687: TRISBbits.TRISB1 = 0;
  1787  0007E4  9293               	bcf	3987,1,c	;volatile
  1788                           
  1789                           ;picuno.c: 688: LATBbits.LATB1 = 0;
  1790  0007E6  928A               	bcf	3978,1,c	;volatile
  1791                           
  1792                           ;picuno.c: 689: }
  1793  0007E8  0012               	return	
  1794  0007EA                     l4302:
  1795                           
  1796                           ;picuno.c: 690: else if(mode==0x02)
  1797  0007EA  5042               	movf	pinMode@mode,w,c
  1798  0007EC  0A02               	xorlw	2
  1799  0007EE  A4D8               	btfss	status,2,c
  1800  0007F0  D003               	goto	l561
  1801                           
  1802                           ;picuno.c: 691: {
  1803                           ;picuno.c: 692: TRISBbits.TRISB1 = 1;
  1804  0007F2  8293               	bsf	3987,1,c	;volatile
  1805                           
  1806                           ;picuno.c: 693: LATBbits.LATB1 = 0;
  1807  0007F4  928A               	bcf	3978,1,c	;volatile
  1808                           
  1809                           ;picuno.c: 694: }
  1810  0007F6  0012               	return	
  1811  0007F8                     l561:
  1812                           
  1813                           ;picuno.c: 695: else
  1814                           ;picuno.c: 696: {
  1815                           ;picuno.c: 697: TRISBbits.TRISB1 = 1;
  1816  0007F8  8293               	bsf	3987,1,c	;volatile
  1817                           
  1818                           ;picuno.c: 698: LATBbits.LATB1 = 0;
  1819  0007FA  928A               	bcf	3978,1,c	;volatile
  1820  0007FC  0012               	return	
  1821  0007FE                     l563:
  1822                           
  1823                           ;picuno.c: 702: if(mode==0x00)
  1824  0007FE  6642               	tstfsz	pinMode@mode,c
  1825  000800  D003               	goto	l4308
  1826                           
  1827                           ;picuno.c: 703: {
  1828                           ;picuno.c: 704: TRISBbits.TRISB2 = 0;
  1829  000802  9493               	bcf	3987,2,c	;volatile
  1830                           
  1831                           ;picuno.c: 705: LATBbits.LATB2 = 0;
  1832  000804  948A               	bcf	3978,2,c	;volatile
  1833                           
  1834                           ;picuno.c: 706: }
  1835  000806  0012               	return	
  1836  000808                     l4308:
  1837                           
  1838                           ;picuno.c: 707: else if(mode==0x02)
  1839  000808  5042               	movf	pinMode@mode,w,c
  1840  00080A  0A02               	xorlw	2
  1841  00080C  A4D8               	btfss	status,2,c
  1842  00080E  D003               	goto	l566
  1843                           
  1844                           ;picuno.c: 708: {
  1845                           ;picuno.c: 709: TRISBbits.TRISB2 = 1;
  1846  000810  8493               	bsf	3987,2,c	;volatile
  1847                           
  1848                           ;picuno.c: 710: LATBbits.LATB2 = 0;
  1849  000812  948A               	bcf	3978,2,c	;volatile
  1850                           
  1851                           ;picuno.c: 711: }
  1852  000814  0012               	return	
  1853  000816                     l566:
  1854                           
  1855                           ;picuno.c: 712: else
  1856                           ;picuno.c: 713: {
  1857                           ;picuno.c: 714: TRISBbits.TRISB2 = 1;
  1858  000816  8493               	bsf	3987,2,c	;volatile
  1859                           
  1860                           ;picuno.c: 715: LATBbits.LATB2 = 0;
  1861  000818  948A               	bcf	3978,2,c	;volatile
  1862  00081A  0012               	return	
  1863  00081C                     l568:
  1864                           
  1865                           ;picuno.c: 719: if(mode==0x00)
  1866  00081C  6642               	tstfsz	pinMode@mode,c
  1867  00081E  D003               	goto	l4314
  1868                           
  1869                           ;picuno.c: 720: {
  1870                           ;picuno.c: 721: TRISBbits.TRISB3 = 0;
  1871  000820  9693               	bcf	3987,3,c	;volatile
  1872                           
  1873                           ;picuno.c: 722: LATBbits.LATB3 = 0;
  1874  000822  968A               	bcf	3978,3,c	;volatile
  1875                           
  1876                           ;picuno.c: 723: }
  1877  000824  0012               	return	
  1878  000826                     l4314:
  1879                           
  1880                           ;picuno.c: 724: else if(mode==0x02)
  1881  000826  5042               	movf	pinMode@mode,w,c
  1882  000828  0A02               	xorlw	2
  1883  00082A  A4D8               	btfss	status,2,c
  1884  00082C  D003               	goto	l571
  1885                           
  1886                           ;picuno.c: 725: {
  1887                           ;picuno.c: 726: TRISBbits.TRISB3 = 1;
  1888  00082E  8693               	bsf	3987,3,c	;volatile
  1889                           
  1890                           ;picuno.c: 727: LATBbits.LATB3 = 0;
  1891  000830  968A               	bcf	3978,3,c	;volatile
  1892                           
  1893                           ;picuno.c: 728: }
  1894  000832  0012               	return	
  1895  000834                     l571:
  1896                           
  1897                           ;picuno.c: 729: else
  1898                           ;picuno.c: 730: {
  1899                           ;picuno.c: 731: TRISBbits.TRISB3 = 1;
  1900  000834  8693               	bsf	3987,3,c	;volatile
  1901                           
  1902                           ;picuno.c: 732: LATBbits.LATB3 = 0;
  1903  000836  968A               	bcf	3978,3,c	;volatile
  1904  000838  0012               	return	
  1905  00083A                     l573:
  1906                           
  1907                           ;picuno.c: 736: if(mode==0x00)
  1908  00083A  6642               	tstfsz	pinMode@mode,c
  1909  00083C  D003               	goto	l4320
  1910                           
  1911                           ;picuno.c: 737: {
  1912                           ;picuno.c: 738: TRISBbits.TRISB4 = 0;
  1913  00083E  9893               	bcf	3987,4,c	;volatile
  1914                           
  1915                           ;picuno.c: 739: LATBbits.LATB4 = 0;
  1916  000840  988A               	bcf	3978,4,c	;volatile
  1917                           
  1918                           ;picuno.c: 740: }
  1919  000842  0012               	return	
  1920  000844                     l4320:
  1921                           
  1922                           ;picuno.c: 741: else if(mode==0x02)
  1923  000844  5042               	movf	pinMode@mode,w,c
  1924  000846  0A02               	xorlw	2
  1925  000848  A4D8               	btfss	status,2,c
  1926  00084A  D003               	goto	l576
  1927                           
  1928                           ;picuno.c: 742: {
  1929                           ;picuno.c: 743: TRISBbits.TRISB4 = 1;
  1930  00084C  8893               	bsf	3987,4,c	;volatile
  1931                           
  1932                           ;picuno.c: 744: LATBbits.LATB4 = 0;
  1933  00084E  988A               	bcf	3978,4,c	;volatile
  1934                           
  1935                           ;picuno.c: 745: }
  1936  000850  0012               	return	
  1937  000852                     l576:
  1938                           
  1939                           ;picuno.c: 746: else
  1940                           ;picuno.c: 747: {
  1941                           ;picuno.c: 748: TRISBbits.TRISB4 = 1;
  1942  000852  8893               	bsf	3987,4,c	;volatile
  1943                           
  1944                           ;picuno.c: 749: LATBbits.LATB4 = 0;
  1945  000854  988A               	bcf	3978,4,c	;volatile
  1946  000856  0012               	return	
  1947  000858                     l578:
  1948                           
  1949                           ;picuno.c: 753: if(mode==0x00)
  1950  000858  6642               	tstfsz	pinMode@mode,c
  1951  00085A  D003               	goto	l4326
  1952                           
  1953                           ;picuno.c: 754: {
  1954                           ;picuno.c: 755: TRISBbits.TRISB5 = 0;
  1955  00085C  9A93               	bcf	3987,5,c	;volatile
  1956                           
  1957                           ;picuno.c: 756: LATBbits.LATB5 = 0;
  1958  00085E  9A8A               	bcf	3978,5,c	;volatile
  1959                           
  1960                           ;picuno.c: 757: }
  1961  000860  0012               	return	
  1962  000862                     l4326:
  1963                           
  1964                           ;picuno.c: 758: else if(mode==0x02)
  1965  000862  5042               	movf	pinMode@mode,w,c
  1966  000864  0A02               	xorlw	2
  1967  000866  A4D8               	btfss	status,2,c
  1968  000868  D003               	goto	l581
  1969                           
  1970                           ;picuno.c: 759: {
  1971                           ;picuno.c: 760: TRISBbits.TRISB5 = 1;
  1972  00086A  8A93               	bsf	3987,5,c	;volatile
  1973                           
  1974                           ;picuno.c: 761: LATBbits.LATB5 = 0;
  1975  00086C  9A8A               	bcf	3978,5,c	;volatile
  1976                           
  1977                           ;picuno.c: 762: }
  1978  00086E  0012               	return	
  1979  000870                     l581:
  1980                           
  1981                           ;picuno.c: 763: else
  1982                           ;picuno.c: 764: {
  1983                           ;picuno.c: 765: TRISBbits.TRISB5 = 1;
  1984  000870  8A93               	bsf	3987,5,c	;volatile
  1985                           
  1986                           ;picuno.c: 766: LATBbits.LATB5 = 0;
  1987  000872  9A8A               	bcf	3978,5,c	;volatile
  1988  000874  0012               	return	
  1989  000876                     l583:
  1990                           
  1991                           ;picuno.c: 770: if(mode==0x00)
  1992  000876  6642               	tstfsz	pinMode@mode,c
  1993  000878  D003               	goto	l4332
  1994                           
  1995                           ;picuno.c: 771: {
  1996                           ;picuno.c: 772: TRISBbits.TRISB6 = 0;
  1997  00087A  9C93               	bcf	3987,6,c	;volatile
  1998                           
  1999                           ;picuno.c: 773: LATBbits.LATB6 = 0;
  2000  00087C  9C8A               	bcf	3978,6,c	;volatile
  2001                           
  2002                           ;picuno.c: 774: }
  2003  00087E  0012               	return	
  2004  000880                     l4332:
  2005                           
  2006                           ;picuno.c: 775: else if(mode==0x02)
  2007  000880  5042               	movf	pinMode@mode,w,c
  2008  000882  0A02               	xorlw	2
  2009  000884  A4D8               	btfss	status,2,c
  2010  000886  D003               	goto	l586
  2011                           
  2012                           ;picuno.c: 776: {
  2013                           ;picuno.c: 777: TRISBbits.TRISB6 = 1;
  2014  000888  8C93               	bsf	3987,6,c	;volatile
  2015                           
  2016                           ;picuno.c: 778: LATBbits.LATB6 = 0;
  2017  00088A  9C8A               	bcf	3978,6,c	;volatile
  2018                           
  2019                           ;picuno.c: 779: }
  2020  00088C  0012               	return	
  2021  00088E                     l586:
  2022                           
  2023                           ;picuno.c: 780: else
  2024                           ;picuno.c: 781: {
  2025                           ;picuno.c: 782: TRISBbits.TRISB6 = 1;
  2026  00088E  8C93               	bsf	3987,6,c	;volatile
  2027                           
  2028                           ;picuno.c: 783: LATBbits.LATB6 = 0;
  2029  000890  9C8A               	bcf	3978,6,c	;volatile
  2030  000892  0012               	return	
  2031  000894                     l588:
  2032                           
  2033                           ;picuno.c: 787: if(mode==0x00)
  2034  000894  6642               	tstfsz	pinMode@mode,c
  2035  000896  D003               	goto	l4338
  2036                           
  2037                           ;picuno.c: 788: {
  2038                           ;picuno.c: 789: TRISBbits.TRISB7 = 0;
  2039  000898  9E93               	bcf	3987,7,c	;volatile
  2040                           
  2041                           ;picuno.c: 790: LATBbits.LATB7 = 0;
  2042  00089A  9E8A               	bcf	3978,7,c	;volatile
  2043                           
  2044                           ;picuno.c: 791: }
  2045  00089C  0012               	return	
  2046  00089E                     l4338:
  2047                           
  2048                           ;picuno.c: 792: else if(mode==0x02)
  2049  00089E  5042               	movf	pinMode@mode,w,c
  2050  0008A0  0A02               	xorlw	2
  2051  0008A2  A4D8               	btfss	status,2,c
  2052  0008A4  D003               	goto	l591
  2053                           
  2054                           ;picuno.c: 793: {
  2055                           ;picuno.c: 794: TRISBbits.TRISB7 = 1;
  2056  0008A6  8E93               	bsf	3987,7,c	;volatile
  2057                           
  2058                           ;picuno.c: 795: LATBbits.LATB7 = 0;
  2059  0008A8  9E8A               	bcf	3978,7,c	;volatile
  2060                           
  2061                           ;picuno.c: 796: }
  2062  0008AA  0012               	return	
  2063  0008AC                     l591:
  2064                           
  2065                           ;picuno.c: 797: else
  2066                           ;picuno.c: 798: {
  2067                           ;picuno.c: 799: TRISBbits.TRISB7 = 1;
  2068  0008AC  8E93               	bsf	3987,7,c	;volatile
  2069                           
  2070                           ;picuno.c: 800: LATBbits.LATB7 = 0;
  2071  0008AE  9E8A               	bcf	3978,7,c	;volatile
  2072  0008B0  0012               	return	
  2073  0008B2                     l593:
  2074                           
  2075                           ;picuno.c: 804: if(mode==0x00)
  2076  0008B2  6642               	tstfsz	pinMode@mode,c
  2077  0008B4  D003               	goto	l4344
  2078                           
  2079                           ;picuno.c: 805: {
  2080                           ;picuno.c: 806: TRISCbits.TRISC0 = 0;
  2081  0008B6  9094               	bcf	3988,0,c	;volatile
  2082                           
  2083                           ;picuno.c: 807: LATCbits.LATC0 = 0;
  2084  0008B8  908B               	bcf	3979,0,c	;volatile
  2085                           
  2086                           ;picuno.c: 808: }
  2087  0008BA  0012               	return	
  2088  0008BC                     l4344:
  2089                           
  2090                           ;picuno.c: 809: else if(mode==0x02)
  2091  0008BC  5042               	movf	pinMode@mode,w,c
  2092  0008BE  0A02               	xorlw	2
  2093  0008C0  A4D8               	btfss	status,2,c
  2094  0008C2  D003               	goto	l596
  2095                           
  2096                           ;picuno.c: 810: {
  2097                           ;picuno.c: 811: TRISCbits.TRISC0 = 1;
  2098  0008C4  8094               	bsf	3988,0,c	;volatile
  2099                           
  2100                           ;picuno.c: 812: LATCbits.LATC0 = 0;
  2101  0008C6  908B               	bcf	3979,0,c	;volatile
  2102                           
  2103                           ;picuno.c: 813: }
  2104  0008C8  0012               	return	
  2105  0008CA                     l596:
  2106                           
  2107                           ;picuno.c: 814: else
  2108                           ;picuno.c: 815: {
  2109                           ;picuno.c: 816: TRISCbits.TRISC0 = 1;
  2110  0008CA  8094               	bsf	3988,0,c	;volatile
  2111                           
  2112                           ;picuno.c: 817: LATCbits.LATC0 = 0;
  2113  0008CC  908B               	bcf	3979,0,c	;volatile
  2114  0008CE  0012               	return	
  2115  0008D0                     l598:
  2116                           
  2117                           ;picuno.c: 821: if(mode==0x00)
  2118  0008D0  6642               	tstfsz	pinMode@mode,c
  2119  0008D2  D003               	goto	l4350
  2120                           
  2121                           ;picuno.c: 822: {
  2122                           ;picuno.c: 823: TRISCbits.TRISC1 = 0;
  2123  0008D4  9294               	bcf	3988,1,c	;volatile
  2124                           
  2125                           ;picuno.c: 824: LATCbits.LATC1 = 0;
  2126  0008D6  928B               	bcf	3979,1,c	;volatile
  2127                           
  2128                           ;picuno.c: 825: }
  2129  0008D8  0012               	return	
  2130  0008DA                     l4350:
  2131                           
  2132                           ;picuno.c: 826: else if(mode==0x02)
  2133  0008DA  5042               	movf	pinMode@mode,w,c
  2134  0008DC  0A02               	xorlw	2
  2135  0008DE  A4D8               	btfss	status,2,c
  2136  0008E0  D003               	goto	l601
  2137                           
  2138                           ;picuno.c: 827: {
  2139                           ;picuno.c: 828: TRISCbits.TRISC1 = 1;
  2140  0008E2  8294               	bsf	3988,1,c	;volatile
  2141                           
  2142                           ;picuno.c: 829: LATCbits.LATC1 = 0;
  2143  0008E4  928B               	bcf	3979,1,c	;volatile
  2144                           
  2145                           ;picuno.c: 830: }
  2146  0008E6  0012               	return	
  2147  0008E8                     l601:
  2148                           
  2149                           ;picuno.c: 831: else
  2150                           ;picuno.c: 832: {
  2151                           ;picuno.c: 833: TRISCbits.TRISC1 = 1;
  2152  0008E8  8294               	bsf	3988,1,c	;volatile
  2153                           
  2154                           ;picuno.c: 834: LATCbits.LATC1 = 0;
  2155  0008EA  928B               	bcf	3979,1,c	;volatile
  2156  0008EC  0012               	return	
  2157  0008EE                     l603:
  2158                           
  2159                           ;picuno.c: 838: if(mode==0x00)
  2160  0008EE  6642               	tstfsz	pinMode@mode,c
  2161  0008F0  D003               	goto	l4356
  2162                           
  2163                           ;picuno.c: 839: {
  2164                           ;picuno.c: 840: TRISCbits.TRISC2 = 0;
  2165  0008F2  9494               	bcf	3988,2,c	;volatile
  2166                           
  2167                           ;picuno.c: 841: LATCbits.LATC2 = 0;
  2168  0008F4  948B               	bcf	3979,2,c	;volatile
  2169                           
  2170                           ;picuno.c: 842: }
  2171  0008F6  0012               	return	
  2172  0008F8                     l4356:
  2173                           
  2174                           ;picuno.c: 843: else if(mode==0x02)
  2175  0008F8  5042               	movf	pinMode@mode,w,c
  2176  0008FA  0A02               	xorlw	2
  2177  0008FC  A4D8               	btfss	status,2,c
  2178  0008FE  D003               	goto	l606
  2179                           
  2180                           ;picuno.c: 844: {
  2181                           ;picuno.c: 845: TRISCbits.TRISC2 = 1;
  2182  000900  8494               	bsf	3988,2,c	;volatile
  2183                           
  2184                           ;picuno.c: 846: LATCbits.LATC2 = 0;
  2185  000902  948B               	bcf	3979,2,c	;volatile
  2186                           
  2187                           ;picuno.c: 847: }
  2188  000904  0012               	return	
  2189  000906                     l606:
  2190                           
  2191                           ;picuno.c: 848: else
  2192                           ;picuno.c: 849: {
  2193                           ;picuno.c: 850: TRISCbits.TRISC2 = 1;
  2194  000906  8494               	bsf	3988,2,c	;volatile
  2195                           
  2196                           ;picuno.c: 851: LATCbits.LATC2 = 0;
  2197  000908  948B               	bcf	3979,2,c	;volatile
  2198  00090A  0012               	return	
  2199  00090C                     l608:
  2200                           
  2201                           ;picuno.c: 858: if(mode==0x00)
  2202  00090C  6642               	tstfsz	pinMode@mode,c
  2203  00090E  D003               	goto	l4362
  2204                           
  2205                           ;picuno.c: 859: {
  2206                           ;picuno.c: 860: TRISCbits.TRISC3 = 0;
  2207  000910  9694               	bcf	3988,3,c	;volatile
  2208                           
  2209                           ;picuno.c: 861: LATCbits.LATC3 = 0;
  2210  000912  968B               	bcf	3979,3,c	;volatile
  2211                           
  2212                           ;picuno.c: 862: }
  2213  000914  0012               	return	
  2214  000916                     l4362:
  2215                           
  2216                           ;picuno.c: 863: else if(mode==0x02)
  2217  000916  5042               	movf	pinMode@mode,w,c
  2218  000918  0A02               	xorlw	2
  2219  00091A  A4D8               	btfss	status,2,c
  2220  00091C  D003               	goto	l611
  2221                           
  2222                           ;picuno.c: 864: {
  2223                           ;picuno.c: 865: TRISCbits.TRISC3 = 1;
  2224  00091E  8694               	bsf	3988,3,c	;volatile
  2225                           
  2226                           ;picuno.c: 866: LATCbits.LATC3 = 0;
  2227  000920  968B               	bcf	3979,3,c	;volatile
  2228                           
  2229                           ;picuno.c: 867: }
  2230  000922  0012               	return	
  2231  000924                     l611:
  2232                           
  2233                           ;picuno.c: 868: else
  2234                           ;picuno.c: 869: {
  2235                           ;picuno.c: 870: TRISCbits.TRISC3 = 1;
  2236  000924  8694               	bsf	3988,3,c	;volatile
  2237                           
  2238                           ;picuno.c: 871: LATCbits.LATC3 = 0;
  2239  000926  968B               	bcf	3979,3,c	;volatile
  2240  000928  0012               	return	
  2241  00092A                     l613:
  2242                           
  2243                           ;picuno.c: 875: if(mode==0x00)
  2244  00092A  6642               	tstfsz	pinMode@mode,c
  2245  00092C  D003               	goto	l4368
  2246                           
  2247                           ;picuno.c: 876: {
  2248                           ;picuno.c: 877: TRISCbits.TRISC4 = 0;
  2249  00092E  9894               	bcf	3988,4,c	;volatile
  2250                           
  2251                           ;picuno.c: 878: LATCbits.LATC4 = 0;
  2252  000930  988B               	bcf	3979,4,c	;volatile
  2253                           
  2254                           ;picuno.c: 879: }
  2255  000932  0012               	return	
  2256  000934                     l4368:
  2257                           
  2258                           ;picuno.c: 880: else if(mode==0x02)
  2259  000934  5042               	movf	pinMode@mode,w,c
  2260  000936  0A02               	xorlw	2
  2261  000938  A4D8               	btfss	status,2,c
  2262  00093A  D003               	goto	l616
  2263                           
  2264                           ;picuno.c: 881: {
  2265                           ;picuno.c: 882: TRISCbits.TRISC4 = 1;
  2266  00093C  8894               	bsf	3988,4,c	;volatile
  2267                           
  2268                           ;picuno.c: 883: LATCbits.LATC4 = 0;
  2269  00093E  988B               	bcf	3979,4,c	;volatile
  2270                           
  2271                           ;picuno.c: 884: }
  2272  000940  0012               	return	
  2273  000942                     l616:
  2274                           
  2275                           ;picuno.c: 885: else
  2276                           ;picuno.c: 886: {
  2277                           ;picuno.c: 887: TRISCbits.TRISC4 = 1;
  2278  000942  8894               	bsf	3988,4,c	;volatile
  2279                           
  2280                           ;picuno.c: 888: LATCbits.LATC4 = 0;
  2281  000944  988B               	bcf	3979,4,c	;volatile
  2282  000946  0012               	return	
  2283  000948                     l618:
  2284                           
  2285                           ;picuno.c: 892: if(mode==0x00)
  2286  000948  6642               	tstfsz	pinMode@mode,c
  2287  00094A  D003               	goto	l4374
  2288                           
  2289                           ;picuno.c: 893: {
  2290                           ;picuno.c: 894: TRISCbits.TRISC5 = 0;
  2291  00094C  9A94               	bcf	3988,5,c	;volatile
  2292                           
  2293                           ;picuno.c: 895: LATCbits.LATC5 = 0;
  2294  00094E  9A8B               	bcf	3979,5,c	;volatile
  2295                           
  2296                           ;picuno.c: 896: }
  2297  000950  0012               	return	
  2298  000952                     l4374:
  2299                           
  2300                           ;picuno.c: 897: else if(mode==0x02)
  2301  000952  5042               	movf	pinMode@mode,w,c
  2302  000954  0A02               	xorlw	2
  2303  000956  A4D8               	btfss	status,2,c
  2304  000958  D003               	goto	l621
  2305                           
  2306                           ;picuno.c: 898: {
  2307                           ;picuno.c: 899: TRISCbits.TRISC5 = 1;
  2308  00095A  8A94               	bsf	3988,5,c	;volatile
  2309                           
  2310                           ;picuno.c: 900: LATCbits.LATC5 = 0;
  2311  00095C  9A8B               	bcf	3979,5,c	;volatile
  2312                           
  2313                           ;picuno.c: 901: }
  2314  00095E  0012               	return	
  2315  000960                     l621:
  2316                           
  2317                           ;picuno.c: 902: else
  2318                           ;picuno.c: 903: {
  2319                           ;picuno.c: 904: TRISCbits.TRISC5 = 1;
  2320  000960  8A94               	bsf	3988,5,c	;volatile
  2321                           
  2322                           ;picuno.c: 905: LATCbits.LATC5 = 0;
  2323  000962  9A8B               	bcf	3979,5,c	;volatile
  2324  000964  0012               	return	
  2325  000966                     l623:
  2326                           
  2327                           ;picuno.c: 911: if(mode==0x00)
  2328  000966  6642               	tstfsz	pinMode@mode,c
  2329  000968  D003               	goto	l4380
  2330                           
  2331                           ;picuno.c: 912: {
  2332                           ;picuno.c: 913: TRISCbits.TRISC6 = 0;
  2333  00096A  9C94               	bcf	3988,6,c	;volatile
  2334                           
  2335                           ;picuno.c: 914: LATCbits.LATC6 = 0;
  2336  00096C  9C8B               	bcf	3979,6,c	;volatile
  2337                           
  2338                           ;picuno.c: 915: }
  2339  00096E  0012               	return	
  2340  000970                     l4380:
  2341                           
  2342                           ;picuno.c: 916: else if(mode==0x02)
  2343  000970  5042               	movf	pinMode@mode,w,c
  2344  000972  0A02               	xorlw	2
  2345  000974  A4D8               	btfss	status,2,c
  2346  000976  D003               	goto	l626
  2347                           
  2348                           ;picuno.c: 917: {
  2349                           ;picuno.c: 918: TRISCbits.TRISC6 = 1;
  2350  000978  8C94               	bsf	3988,6,c	;volatile
  2351                           
  2352                           ;picuno.c: 919: LATCbits.LATC6 = 0;
  2353  00097A  9C8B               	bcf	3979,6,c	;volatile
  2354                           
  2355                           ;picuno.c: 920: }
  2356  00097C  0012               	return	
  2357  00097E                     l626:
  2358                           
  2359                           ;picuno.c: 921: else
  2360                           ;picuno.c: 922: {
  2361                           ;picuno.c: 923: TRISCbits.TRISC6 = 1;
  2362  00097E  8C94               	bsf	3988,6,c	;volatile
  2363                           
  2364                           ;picuno.c: 924: LATCbits.LATC6 = 0;
  2365  000980  9C8B               	bcf	3979,6,c	;volatile
  2366  000982  0012               	return	
  2367  000984                     l628:
  2368                           
  2369                           ;picuno.c: 928: if(mode==0x00)
  2370  000984  6642               	tstfsz	pinMode@mode,c
  2371  000986  D003               	goto	l4386
  2372                           
  2373                           ;picuno.c: 929: {
  2374                           ;picuno.c: 930: TRISCbits.TRISC7 = 0;
  2375  000988  9E94               	bcf	3988,7,c	;volatile
  2376                           
  2377                           ;picuno.c: 931: LATCbits.LATC7 = 0;
  2378  00098A  9E8B               	bcf	3979,7,c	;volatile
  2379                           
  2380                           ;picuno.c: 932: }
  2381  00098C  0012               	return	
  2382  00098E                     l4386:
  2383                           
  2384                           ;picuno.c: 933: else if(mode==0x02)
  2385  00098E  5042               	movf	pinMode@mode,w,c
  2386  000990  0A02               	xorlw	2
  2387  000992  A4D8               	btfss	status,2,c
  2388  000994  D003               	goto	l631
  2389                           
  2390                           ;picuno.c: 934: {
  2391                           ;picuno.c: 935: TRISCbits.TRISC7 = 1;
  2392  000996  8E94               	bsf	3988,7,c	;volatile
  2393                           
  2394                           ;picuno.c: 936: LATCbits.LATC7 = 0;
  2395  000998  9E8B               	bcf	3979,7,c	;volatile
  2396                           
  2397                           ;picuno.c: 937: }
  2398  00099A  0012               	return	
  2399  00099C                     l631:
  2400                           
  2401                           ;picuno.c: 938: else
  2402                           ;picuno.c: 939: {
  2403                           ;picuno.c: 940: TRISCbits.TRISC7 = 1;
  2404  00099C  8E94               	bsf	3988,7,c	;volatile
  2405                           
  2406                           ;picuno.c: 941: LATCbits.LATC7 = 0;
  2407  00099E  9E8B               	bcf	3979,7,c	;volatile
  2408  0009A0  0012               	return	
  2409  0009A2                     l633:
  2410                           
  2411                           ;picuno.c: 945: if(mode==0x00)
  2412  0009A2  6642               	tstfsz	pinMode@mode,c
  2413  0009A4  D003               	goto	l4392
  2414                           
  2415                           ;picuno.c: 946: {
  2416                           ;picuno.c: 947: TRISDbits.TRISD0 = 0;
  2417  0009A6  9095               	bcf	3989,0,c	;volatile
  2418                           
  2419                           ;picuno.c: 948: LATDbits.LATD0 = 0;
  2420  0009A8  908C               	bcf	3980,0,c	;volatile
  2421                           
  2422                           ;picuno.c: 949: }
  2423  0009AA  0012               	return	
  2424  0009AC                     l4392:
  2425                           
  2426                           ;picuno.c: 950: else if(mode==0x02)
  2427  0009AC  5042               	movf	pinMode@mode,w,c
  2428  0009AE  0A02               	xorlw	2
  2429  0009B0  A4D8               	btfss	status,2,c
  2430  0009B2  D003               	goto	l636
  2431                           
  2432                           ;picuno.c: 951: {
  2433                           ;picuno.c: 952: TRISDbits.TRISD0 = 1;
  2434  0009B4  8095               	bsf	3989,0,c	;volatile
  2435                           
  2436                           ;picuno.c: 953: LATDbits.LATD0 = 0;
  2437  0009B6  908C               	bcf	3980,0,c	;volatile
  2438                           
  2439                           ;picuno.c: 954: }
  2440  0009B8  0012               	return	
  2441  0009BA                     l636:
  2442                           
  2443                           ;picuno.c: 955: else
  2444                           ;picuno.c: 956: {
  2445                           ;picuno.c: 957: TRISDbits.TRISD0 = 1;
  2446  0009BA  8095               	bsf	3989,0,c	;volatile
  2447                           
  2448                           ;picuno.c: 958: LATDbits.LATD0 = 0;
  2449  0009BC  908C               	bcf	3980,0,c	;volatile
  2450  0009BE  0012               	return	
  2451  0009C0                     l638:
  2452                           
  2453                           ;picuno.c: 962: if(mode==0x00)
  2454  0009C0  6642               	tstfsz	pinMode@mode,c
  2455  0009C2  D003               	goto	l4398
  2456                           
  2457                           ;picuno.c: 963: {
  2458                           ;picuno.c: 964: TRISDbits.TRISD1 = 0;
  2459  0009C4  9295               	bcf	3989,1,c	;volatile
  2460                           
  2461                           ;picuno.c: 965: LATDbits.LATD1 = 0;
  2462  0009C6  928C               	bcf	3980,1,c	;volatile
  2463                           
  2464                           ;picuno.c: 966: }
  2465  0009C8  0012               	return	
  2466  0009CA                     l4398:
  2467                           
  2468                           ;picuno.c: 967: else if(mode==0x02)
  2469  0009CA  5042               	movf	pinMode@mode,w,c
  2470  0009CC  0A02               	xorlw	2
  2471  0009CE  A4D8               	btfss	status,2,c
  2472  0009D0  D003               	goto	l641
  2473                           
  2474                           ;picuno.c: 968: {
  2475                           ;picuno.c: 969: TRISDbits.TRISD1 = 1;
  2476  0009D2  8295               	bsf	3989,1,c	;volatile
  2477                           
  2478                           ;picuno.c: 970: LATDbits.LATD1 = 0;
  2479  0009D4  928C               	bcf	3980,1,c	;volatile
  2480                           
  2481                           ;picuno.c: 971: }
  2482  0009D6  0012               	return	
  2483  0009D8                     l641:
  2484                           
  2485                           ;picuno.c: 972: else
  2486                           ;picuno.c: 973: {
  2487                           ;picuno.c: 974: TRISDbits.TRISD1 = 1;
  2488  0009D8  8295               	bsf	3989,1,c	;volatile
  2489                           
  2490                           ;picuno.c: 975: LATDbits.LATD1 = 0;
  2491  0009DA  928C               	bcf	3980,1,c	;volatile
  2492  0009DC  0012               	return	
  2493  0009DE                     l643:
  2494                           
  2495                           ;picuno.c: 979: if(mode==0x00)
  2496  0009DE  6642               	tstfsz	pinMode@mode,c
  2497  0009E0  D003               	goto	l4404
  2498                           
  2499                           ;picuno.c: 980: {
  2500                           ;picuno.c: 981: TRISDbits.TRISD2 = 0;
  2501  0009E2  9495               	bcf	3989,2,c	;volatile
  2502                           
  2503                           ;picuno.c: 982: LATDbits.LATD2 = 0;
  2504  0009E4  948C               	bcf	3980,2,c	;volatile
  2505                           
  2506                           ;picuno.c: 983: }
  2507  0009E6  0012               	return	
  2508  0009E8                     l4404:
  2509                           
  2510                           ;picuno.c: 984: else if(mode==0x02)
  2511  0009E8  5042               	movf	pinMode@mode,w,c
  2512  0009EA  0A02               	xorlw	2
  2513  0009EC  A4D8               	btfss	status,2,c
  2514  0009EE  D003               	goto	l646
  2515                           
  2516                           ;picuno.c: 985: {
  2517                           ;picuno.c: 986: TRISDbits.TRISD2 = 1;
  2518  0009F0  8495               	bsf	3989,2,c	;volatile
  2519                           
  2520                           ;picuno.c: 987: LATDbits.LATD2 = 0;
  2521  0009F2  948C               	bcf	3980,2,c	;volatile
  2522                           
  2523                           ;picuno.c: 988: }
  2524  0009F4  0012               	return	
  2525  0009F6                     l646:
  2526                           
  2527                           ;picuno.c: 989: else
  2528                           ;picuno.c: 990: {
  2529                           ;picuno.c: 991: TRISDbits.TRISD2 = 1;
  2530  0009F6  8495               	bsf	3989,2,c	;volatile
  2531                           
  2532                           ;picuno.c: 992: LATDbits.LATD2 = 0;
  2533  0009F8  948C               	bcf	3980,2,c	;volatile
  2534  0009FA  0012               	return	
  2535  0009FC                     l648:
  2536                           
  2537                           ;picuno.c: 996: if(mode==0x00)
  2538  0009FC  6642               	tstfsz	pinMode@mode,c
  2539  0009FE  D003               	goto	l4410
  2540                           
  2541                           ;picuno.c: 997: {
  2542                           ;picuno.c: 998: TRISDbits.TRISD3 = 0;
  2543  000A00  9695               	bcf	3989,3,c	;volatile
  2544                           
  2545                           ;picuno.c: 999: LATDbits.LATD3 = 0;
  2546  000A02  968C               	bcf	3980,3,c	;volatile
  2547                           
  2548                           ;picuno.c: 1000: }
  2549  000A04  0012               	return	
  2550  000A06                     l4410:
  2551                           
  2552                           ;picuno.c: 1001: else if(mode==0x02)
  2553  000A06  5042               	movf	pinMode@mode,w,c
  2554  000A08  0A02               	xorlw	2
  2555  000A0A  A4D8               	btfss	status,2,c
  2556  000A0C  D003               	goto	l651
  2557                           
  2558                           ;picuno.c: 1002: {
  2559                           ;picuno.c: 1003: TRISDbits.TRISD3 = 1;
  2560  000A0E  8695               	bsf	3989,3,c	;volatile
  2561                           
  2562                           ;picuno.c: 1004: LATDbits.LATD3 = 0;
  2563  000A10  968C               	bcf	3980,3,c	;volatile
  2564                           
  2565                           ;picuno.c: 1005: }
  2566  000A12  0012               	return	
  2567  000A14                     l651:
  2568                           
  2569                           ;picuno.c: 1006: else
  2570                           ;picuno.c: 1007: {
  2571                           ;picuno.c: 1008: TRISDbits.TRISD3 = 1;
  2572  000A14  8695               	bsf	3989,3,c	;volatile
  2573                           
  2574                           ;picuno.c: 1009: LATDbits.LATD3 = 0;
  2575  000A16  968C               	bcf	3980,3,c	;volatile
  2576  000A18  0012               	return	
  2577  000A1A                     l653:
  2578                           
  2579                           ;picuno.c: 1013: if(mode==0x00)
  2580  000A1A  6642               	tstfsz	pinMode@mode,c
  2581  000A1C  D003               	goto	l4416
  2582                           
  2583                           ;picuno.c: 1014: {
  2584                           ;picuno.c: 1015: TRISDbits.TRISD4 = 0;
  2585  000A1E  9895               	bcf	3989,4,c	;volatile
  2586                           
  2587                           ;picuno.c: 1016: LATDbits.LATD4 = 0;
  2588  000A20  988C               	bcf	3980,4,c	;volatile
  2589                           
  2590                           ;picuno.c: 1017: }
  2591  000A22  0012               	return	
  2592  000A24                     l4416:
  2593                           
  2594                           ;picuno.c: 1018: else if(mode==0x02)
  2595  000A24  5042               	movf	pinMode@mode,w,c
  2596  000A26  0A02               	xorlw	2
  2597  000A28  A4D8               	btfss	status,2,c
  2598  000A2A  D003               	goto	l656
  2599                           
  2600                           ;picuno.c: 1019: {
  2601                           ;picuno.c: 1020: TRISDbits.TRISD4 = 1;
  2602  000A2C  8895               	bsf	3989,4,c	;volatile
  2603                           
  2604                           ;picuno.c: 1021: LATDbits.LATD4 = 0;
  2605  000A2E  988C               	bcf	3980,4,c	;volatile
  2606                           
  2607                           ;picuno.c: 1022: }
  2608  000A30  0012               	return	
  2609  000A32                     l656:
  2610                           
  2611                           ;picuno.c: 1023: else
  2612                           ;picuno.c: 1024: {
  2613                           ;picuno.c: 1025: TRISDbits.TRISD4 = 1;
  2614  000A32  8895               	bsf	3989,4,c	;volatile
  2615                           
  2616                           ;picuno.c: 1026: LATDbits.LATD4 = 0;
  2617  000A34  988C               	bcf	3980,4,c	;volatile
  2618  000A36  0012               	return	
  2619  000A38                     l658:
  2620                           
  2621                           ;picuno.c: 1030: if(mode==0x00)
  2622  000A38  6642               	tstfsz	pinMode@mode,c
  2623  000A3A  D003               	goto	l4422
  2624                           
  2625                           ;picuno.c: 1031: {
  2626                           ;picuno.c: 1032: TRISDbits.TRISD5 = 0;
  2627  000A3C  9A95               	bcf	3989,5,c	;volatile
  2628                           
  2629                           ;picuno.c: 1033: LATDbits.LATD5 = 0;
  2630  000A3E  9A8C               	bcf	3980,5,c	;volatile
  2631                           
  2632                           ;picuno.c: 1034: }
  2633  000A40  0012               	return	
  2634  000A42                     l4422:
  2635                           
  2636                           ;picuno.c: 1035: else if(mode==0x02)
  2637  000A42  5042               	movf	pinMode@mode,w,c
  2638  000A44  0A02               	xorlw	2
  2639  000A46  A4D8               	btfss	status,2,c
  2640  000A48  D003               	goto	l661
  2641                           
  2642                           ;picuno.c: 1036: {
  2643                           ;picuno.c: 1037: TRISDbits.TRISD5 = 1;
  2644  000A4A  8A95               	bsf	3989,5,c	;volatile
  2645                           
  2646                           ;picuno.c: 1038: LATDbits.LATD5 = 0;
  2647  000A4C  9A8C               	bcf	3980,5,c	;volatile
  2648                           
  2649                           ;picuno.c: 1039: }
  2650  000A4E  0012               	return	
  2651  000A50                     l661:
  2652                           
  2653                           ;picuno.c: 1040: else
  2654                           ;picuno.c: 1041: {
  2655                           ;picuno.c: 1042: TRISDbits.TRISD5 = 1;
  2656  000A50  8A95               	bsf	3989,5,c	;volatile
  2657                           
  2658                           ;picuno.c: 1043: LATDbits.LATD5 = 0;
  2659  000A52  9A8C               	bcf	3980,5,c	;volatile
  2660  000A54  0012               	return	
  2661  000A56                     l663:
  2662                           
  2663                           ;picuno.c: 1047: if(mode==0x00)
  2664  000A56  6642               	tstfsz	pinMode@mode,c
  2665  000A58  D003               	goto	l4428
  2666                           
  2667                           ;picuno.c: 1048: {
  2668                           ;picuno.c: 1049: TRISDbits.TRISD6 = 0;
  2669  000A5A  9C95               	bcf	3989,6,c	;volatile
  2670                           
  2671                           ;picuno.c: 1050: LATDbits.LATD6 = 0;
  2672  000A5C  9C8C               	bcf	3980,6,c	;volatile
  2673                           
  2674                           ;picuno.c: 1051: }
  2675  000A5E  0012               	return	
  2676  000A60                     l4428:
  2677                           
  2678                           ;picuno.c: 1052: else if(mode==0x02)
  2679  000A60  5042               	movf	pinMode@mode,w,c
  2680  000A62  0A02               	xorlw	2
  2681  000A64  A4D8               	btfss	status,2,c
  2682  000A66  D003               	goto	l666
  2683                           
  2684                           ;picuno.c: 1053: {
  2685                           ;picuno.c: 1054: TRISDbits.TRISD6 = 1;
  2686  000A68  8C95               	bsf	3989,6,c	;volatile
  2687                           
  2688                           ;picuno.c: 1055: LATDbits.LATD6 = 0;
  2689  000A6A  9C8C               	bcf	3980,6,c	;volatile
  2690                           
  2691                           ;picuno.c: 1056: }
  2692  000A6C  0012               	return	
  2693  000A6E                     l666:
  2694                           
  2695                           ;picuno.c: 1057: else
  2696                           ;picuno.c: 1058: {
  2697                           ;picuno.c: 1059: TRISDbits.TRISD6 = 1;
  2698  000A6E  8C95               	bsf	3989,6,c	;volatile
  2699                           
  2700                           ;picuno.c: 1060: LATDbits.LATD6 = 0;
  2701  000A70  9C8C               	bcf	3980,6,c	;volatile
  2702  000A72  0012               	return	
  2703  000A74                     l668:
  2704                           
  2705                           ;picuno.c: 1064: if(mode==0x00)
  2706  000A74  6642               	tstfsz	pinMode@mode,c
  2707  000A76  D003               	goto	l4434
  2708                           
  2709                           ;picuno.c: 1065: {
  2710                           ;picuno.c: 1066: TRISDbits.TRISD7 = 0;
  2711  000A78  9E95               	bcf	3989,7,c	;volatile
  2712                           
  2713                           ;picuno.c: 1067: LATDbits.LATD7 = 0;
  2714  000A7A  9E8C               	bcf	3980,7,c	;volatile
  2715                           
  2716                           ;picuno.c: 1068: }
  2717  000A7C  0012               	return	
  2718  000A7E                     l4434:
  2719                           
  2720                           ;picuno.c: 1069: else if(mode==0x02)
  2721  000A7E  5042               	movf	pinMode@mode,w,c
  2722  000A80  0A02               	xorlw	2
  2723  000A82  A4D8               	btfss	status,2,c
  2724  000A84  D003               	goto	l671
  2725                           
  2726                           ;picuno.c: 1070: {
  2727                           ;picuno.c: 1071: TRISDbits.TRISD7 = 1;
  2728  000A86  8E95               	bsf	3989,7,c	;volatile
  2729                           
  2730                           ;picuno.c: 1072: LATDbits.LATD7 = 0;
  2731  000A88  9E8C               	bcf	3980,7,c	;volatile
  2732                           
  2733                           ;picuno.c: 1073: }
  2734  000A8A  0012               	return	
  2735  000A8C                     l671:
  2736                           
  2737                           ;picuno.c: 1074: else
  2738                           ;picuno.c: 1075: {
  2739                           ;picuno.c: 1076: TRISDbits.TRISD7 = 1;
  2740  000A8C  8E95               	bsf	3989,7,c	;volatile
  2741                           
  2742                           ;picuno.c: 1077: LATDbits.LATD7 = 0;
  2743  000A8E  9E8C               	bcf	3980,7,c	;volatile
  2744  000A90  0012               	return	
  2745  000A92                     l673:
  2746                           
  2747                           ;picuno.c: 1081: if(mode==0x00)
  2748  000A92  6642               	tstfsz	pinMode@mode,c
  2749  000A94  D003               	goto	l4440
  2750                           
  2751                           ;picuno.c: 1082: {
  2752                           ;picuno.c: 1083: TRISEbits.TRISE0 = 0;
  2753  000A96  9096               	bcf	3990,0,c	;volatile
  2754                           
  2755                           ;picuno.c: 1084: LATEbits.LATE0 = 0;
  2756  000A98  908D               	bcf	3981,0,c	;volatile
  2757                           
  2758                           ;picuno.c: 1085: }
  2759  000A9A  0012               	return	
  2760  000A9C                     l4440:
  2761                           
  2762                           ;picuno.c: 1086: else if(mode==0x02)
  2763  000A9C  5042               	movf	pinMode@mode,w,c
  2764  000A9E  0A02               	xorlw	2
  2765  000AA0  A4D8               	btfss	status,2,c
  2766  000AA2  D003               	goto	l676
  2767                           
  2768                           ;picuno.c: 1087: {
  2769                           ;picuno.c: 1088: TRISEbits.TRISE0 = 1;
  2770  000AA4  8096               	bsf	3990,0,c	;volatile
  2771                           
  2772                           ;picuno.c: 1089: LATEbits.LATE0 = 0;
  2773  000AA6  908D               	bcf	3981,0,c	;volatile
  2774                           
  2775                           ;picuno.c: 1090: }
  2776  000AA8  0012               	return	
  2777  000AAA                     l676:
  2778                           
  2779                           ;picuno.c: 1091: else
  2780                           ;picuno.c: 1092: {
  2781                           ;picuno.c: 1093: TRISEbits.TRISE0 = 1;
  2782  000AAA  8096               	bsf	3990,0,c	;volatile
  2783                           
  2784                           ;picuno.c: 1094: LATEbits.LATE0 = 0;
  2785  000AAC  908D               	bcf	3981,0,c	;volatile
  2786  000AAE  0012               	return	
  2787  000AB0                     l678:
  2788                           
  2789                           ;picuno.c: 1098: if(mode==0x00)
  2790  000AB0  6642               	tstfsz	pinMode@mode,c
  2791  000AB2  D003               	goto	l4446
  2792                           
  2793                           ;picuno.c: 1099: {
  2794                           ;picuno.c: 1100: TRISEbits.TRISE1 = 0;
  2795  000AB4  9296               	bcf	3990,1,c	;volatile
  2796                           
  2797                           ;picuno.c: 1101: LATEbits.LATE1 = 0;
  2798  000AB6  928D               	bcf	3981,1,c	;volatile
  2799                           
  2800                           ;picuno.c: 1102: }
  2801  000AB8  0012               	return	
  2802  000ABA                     l4446:
  2803                           
  2804                           ;picuno.c: 1103: else if(mode==0x02)
  2805  000ABA  5042               	movf	pinMode@mode,w,c
  2806  000ABC  0A02               	xorlw	2
  2807  000ABE  A4D8               	btfss	status,2,c
  2808  000AC0  D003               	goto	l681
  2809                           
  2810                           ;picuno.c: 1104: {
  2811                           ;picuno.c: 1105: TRISEbits.TRISE1 = 1;
  2812  000AC2  8296               	bsf	3990,1,c	;volatile
  2813                           
  2814                           ;picuno.c: 1106: LATEbits.LATE1 = 0;
  2815  000AC4  928D               	bcf	3981,1,c	;volatile
  2816                           
  2817                           ;picuno.c: 1107: }
  2818  000AC6  0012               	return	
  2819  000AC8                     l681:
  2820                           
  2821                           ;picuno.c: 1108: else
  2822                           ;picuno.c: 1109: {
  2823                           ;picuno.c: 1110: TRISEbits.TRISE1 = 1;
  2824  000AC8  8296               	bsf	3990,1,c	;volatile
  2825                           
  2826                           ;picuno.c: 1111: LATEbits.LATE1 = 0;
  2827  000ACA  928D               	bcf	3981,1,c	;volatile
  2828  000ACC  0012               	return	
  2829  000ACE                     l683:
  2830                           
  2831                           ;picuno.c: 1115: if(mode==0x00)
  2832  000ACE  6642               	tstfsz	pinMode@mode,c
  2833  000AD0  D003               	goto	l4452
  2834                           
  2835                           ;picuno.c: 1116: {
  2836                           ;picuno.c: 1117: TRISEbits.TRISE2 = 0;
  2837  000AD2  9496               	bcf	3990,2,c	;volatile
  2838                           
  2839                           ;picuno.c: 1118: LATEbits.LATE2 = 0;
  2840  000AD4  948D               	bcf	3981,2,c	;volatile
  2841                           
  2842                           ;picuno.c: 1119: }
  2843  000AD6  0012               	return	
  2844  000AD8                     l4452:
  2845                           
  2846                           ;picuno.c: 1120: else if(mode==0x02)
  2847  000AD8  5042               	movf	pinMode@mode,w,c
  2848  000ADA  0A02               	xorlw	2
  2849  000ADC  A4D8               	btfss	status,2,c
  2850  000ADE  D003               	goto	l686
  2851                           
  2852                           ;picuno.c: 1121: {
  2853                           ;picuno.c: 1122: TRISEbits.TRISE2 = 1;
  2854  000AE0  8496               	bsf	3990,2,c	;volatile
  2855                           
  2856                           ;picuno.c: 1123: LATEbits.LATE2 = 0;
  2857  000AE2  948D               	bcf	3981,2,c	;volatile
  2858                           
  2859                           ;picuno.c: 1124: }
  2860  000AE4  0012               	return	
  2861  000AE6                     l686:
  2862                           
  2863                           ;picuno.c: 1125: else
  2864                           ;picuno.c: 1126: {
  2865                           ;picuno.c: 1127: TRISEbits.TRISE2 = 1;
  2866  000AE6  8496               	bsf	3990,2,c	;volatile
  2867                           
  2868                           ;picuno.c: 1128: LATEbits.LATE2 = 0;
  2869  000AE8  948D               	bcf	3981,2,c	;volatile
  2870  000AEA  0012               	return	
  2871  000AEC                     l4458:
  2872  000AEC  5043               	movf	pinMode@pin,w,c
  2873                           
  2874                           ; Switch size 1, requested type "space"
  2875                           ; Number of cases is 35, Range of values is 0 to 34
  2876                           ; switch strategies available:
  2877                           ; Name         Instructions Cycles
  2878                           ; simple_byte          106    54 (average)
  2879                           ;	Chosen strategy is simple_byte
  2880  000AEE  0A00               	xorlw	0	; case 0
  2881  000AF0  B4D8               	btfsc	status,2,c
  2882  000AF2  D5C2               	goto	l502
  2883  000AF4  0A01               	xorlw	1	; case 1
  2884  000AF6  B4D8               	btfsc	status,2,c
  2885  000AF8  D5D7               	goto	l510
  2886  000AFA  0A03               	xorlw	3	; case 2
  2887  000AFC  B4D8               	btfsc	status,2,c
  2888  000AFE  D5EC               	goto	l517
  2889  000B00  0A01               	xorlw	1	; case 3
  2890  000B02  B4D8               	btfsc	status,2,c
  2891  000B04  D601               	goto	l524
  2892  000B06  0A07               	xorlw	7	; case 4
  2893  000B08  B4D8               	btfsc	status,2,c
  2894  000B0A  D616               	goto	l531
  2895  000B0C  0A01               	xorlw	1	; case 5
  2896  000B0E  B4D8               	btfsc	status,2,c
  2897  000B10  D622               	goto	l536
  2898  000B12  0A03               	xorlw	3	; case 6
  2899  000B14  B4D8               	btfsc	status,2,c
  2900  000B16  D637               	goto	l543
  2901  000B18  0A01               	xorlw	1	; case 7
  2902  000B1A  B4D8               	btfsc	status,2,c
  2903  000B1C  D643               	goto	l548
  2904  000B1E  0A0F               	xorlw	15	; case 8
  2905  000B20  B4D8               	btfsc	status,2,c
  2906  000B22  D64F               	goto	l553
  2907  000B24  0A01               	xorlw	1	; case 9
  2908  000B26  B4D8               	btfsc	status,2,c
  2909  000B28  D65B               	goto	l558
  2910  000B2A  0A03               	xorlw	3	; case 10
  2911  000B2C  B4D8               	btfsc	status,2,c
  2912  000B2E  D667               	goto	l563
  2913  000B30  0A01               	xorlw	1	; case 11
  2914  000B32  B4D8               	btfsc	status,2,c
  2915  000B34  D673               	goto	l568
  2916  000B36  0A07               	xorlw	7	; case 12
  2917  000B38  B4D8               	btfsc	status,2,c
  2918  000B3A  D67F               	goto	l573
  2919  000B3C  0A01               	xorlw	1	; case 13
  2920  000B3E  B4D8               	btfsc	status,2,c
  2921  000B40  D68B               	goto	l578
  2922  000B42  0A03               	xorlw	3	; case 14
  2923  000B44  B4D8               	btfsc	status,2,c
  2924  000B46  D697               	goto	l583
  2925  000B48  0A01               	xorlw	1	; case 15
  2926  000B4A  B4D8               	btfsc	status,2,c
  2927  000B4C  D6A3               	goto	l588
  2928  000B4E  0A1F               	xorlw	31	; case 16
  2929  000B50  B4D8               	btfsc	status,2,c
  2930  000B52  D6AF               	goto	l593
  2931  000B54  0A01               	xorlw	1	; case 17
  2932  000B56  B4D8               	btfsc	status,2,c
  2933  000B58  D6BB               	goto	l598
  2934  000B5A  0A03               	xorlw	3	; case 18
  2935  000B5C  B4D8               	btfsc	status,2,c
  2936  000B5E  D6C7               	goto	l603
  2937  000B60  0A01               	xorlw	1	; case 19
  2938  000B62  B4D8               	btfsc	status,2,c
  2939  000B64  D6D3               	goto	l608
  2940  000B66  0A07               	xorlw	7	; case 20
  2941  000B68  B4D8               	btfsc	status,2,c
  2942  000B6A  D6DF               	goto	l613
  2943  000B6C  0A01               	xorlw	1	; case 21
  2944  000B6E  B4D8               	btfsc	status,2,c
  2945  000B70  D6EB               	goto	l618
  2946  000B72  0A03               	xorlw	3	; case 22
  2947  000B74  B4D8               	btfsc	status,2,c
  2948  000B76  D6F7               	goto	l623
  2949  000B78  0A01               	xorlw	1	; case 23
  2950  000B7A  B4D8               	btfsc	status,2,c
  2951  000B7C  D703               	goto	l628
  2952  000B7E  0A0F               	xorlw	15	; case 24
  2953  000B80  B4D8               	btfsc	status,2,c
  2954  000B82  D70F               	goto	l633
  2955  000B84  0A01               	xorlw	1	; case 25
  2956  000B86  B4D8               	btfsc	status,2,c
  2957  000B88  D71B               	goto	l638
  2958  000B8A  0A03               	xorlw	3	; case 26
  2959  000B8C  B4D8               	btfsc	status,2,c
  2960  000B8E  D727               	goto	l643
  2961  000B90  0A01               	xorlw	1	; case 27
  2962  000B92  B4D8               	btfsc	status,2,c
  2963  000B94  D733               	goto	l648
  2964  000B96  0A07               	xorlw	7	; case 28
  2965  000B98  B4D8               	btfsc	status,2,c
  2966  000B9A  D73F               	goto	l653
  2967  000B9C  0A01               	xorlw	1	; case 29
  2968  000B9E  B4D8               	btfsc	status,2,c
  2969  000BA0  D74B               	goto	l658
  2970  000BA2  0A03               	xorlw	3	; case 30
  2971  000BA4  B4D8               	btfsc	status,2,c
  2972  000BA6  D757               	goto	l663
  2973  000BA8  0A01               	xorlw	1	; case 31
  2974  000BAA  B4D8               	btfsc	status,2,c
  2975  000BAC  D763               	goto	l668
  2976  000BAE  0A3F               	xorlw	63	; case 32
  2977  000BB0  B4D8               	btfsc	status,2,c
  2978  000BB2  D76F               	goto	l673
  2979  000BB4  0A01               	xorlw	1	; case 33
  2980  000BB6  B4D8               	btfsc	status,2,c
  2981  000BB8  D77B               	goto	l678
  2982  000BBA  0A03               	xorlw	3	; case 34
  2983  000BBC  A4D8               	btfss	status,2,c
  2984  000BBE  0012               	return	
  2985  000BC0  D786               	goto	l683
  2986  000BC2                     __end_of_pinMode:
  2987                           	opt stack 0
  2988                           tblptru	equ	0xFF8
  2989                           tblptrh	equ	0xFF7
  2990                           tblptrl	equ	0xFF6
  2991                           tablat	equ	0xFF5
  2992                           postinc0	equ	0xFEE
  2993                           wreg	equ	0xFE8
  2994                           postdec1	equ	0xFE5
  2995                           fsr1l	equ	0xFE1
  2996                           status	equ	0xFD8
  2997                           
  2998 ;; *************** function _analogInput *****************
  2999 ;; Defined at:
  3000 ;;		line 466 in file "../../picuno/picuno.c"
  3001 ;; Parameters:    Size  Location     Type
  3002 ;;  ANx             1    wreg     unsigned char 
  3003 ;; Auto vars:     Size  Location     Type
  3004 ;;  ANx             1   19[COMRAM] unsigned char 
  3005 ;;  d               1   20[COMRAM] unsigned char 
  3006 ;; Return value:  Size  Location     Type
  3007 ;;		None               void
  3008 ;; Registers used:
  3009 ;;		wreg, status,2, status,0
  3010 ;; Tracked objects:
  3011 ;;		On entry : 0/0
  3012 ;;		On exit  : 0/0
  3013 ;;		Unchanged: 0/0
  3014 ;; Data sizes:     COMRAM   BANK0   BANK1   BANK2   BANK3   BANK4   BANK5
  3015 ;;      Params:         0       0       0       0       0       0       0
  3016 ;;      Locals:         2       0       0       0       0       0       0
  3017 ;;      Temps:          2       0       0       0       0       0       0
  3018 ;;      Totals:         4       0       0       0       0       0       0
  3019 ;;Total ram usage:        4 bytes
  3020 ;; Hardware stack levels used:    1
  3021 ;; Hardware stack levels required when called:    3
  3022 ;; This function calls:
  3023 ;;		Nothing
  3024 ;; This function is called by:
  3025 ;;		_pinMode
  3026 ;; This function uses a non-reentrant model
  3027 ;;
  3028                           
  3029                           	psect	text6
  3030  001392                     __ptext6:
  3031                           	opt stack 0
  3032  001392                     _analogInput:
  3033                           	opt stack 24
  3034                           
  3035                           ;incstack = 0
  3036                           ;analogInput@ANx stored from wreg
  3037  001392  6E40               	movwf	analogInput@ANx,c
  3038                           
  3039                           ;picuno.c: 468: byte d;
  3040                           ;picuno.c: 477: d = (1 << ANx);
  3041  001394  C040  F03E         	movff	analogInput@ANx,??_analogInput
  3042  001398  0E01               	movlw	1
  3043  00139A  6E3F               	movwf	(??_analogInput+1)& (0+255),c
  3044  00139C  2A3E               	incf	??_analogInput,f,c
  3045  00139E  D002               	goto	u3614
  3046  0013A0                     u3615:
  3047  0013A0  90D8               	bcf	status,0,c
  3048  0013A2  363F               	rlcf	??_analogInput+1,f,c
  3049  0013A4                     u3614:
  3050  0013A4  2E3E               	decfsz	??_analogInput,f,c
  3051  0013A6  D7FC               	goto	u3615
  3052  0013A8  503F               	movf	??_analogInput+1,w,c
  3053  0013AA  6E41               	movwf	analogInput@d,c
  3054                           
  3055                           ;picuno.c: 478: ANSELA |= d;
  3056  0013AC  5041               	movf	analogInput@d,w,c
  3057  0013AE  010F               	movlb	15	; () banked
  3058  0013B0  1338               	iorwf	56,f,b	;volatile
  3059                           
  3060                           ; BSR set to: 15
  3061  0013B2  0012               	return	
  3062  0013B4                     __end_of_analogInput:
  3063                           	opt stack 0
  3064                           tblptru	equ	0xFF8
  3065                           tblptrh	equ	0xFF7
  3066                           tblptrl	equ	0xFF6
  3067                           tablat	equ	0xFF5
  3068                           postinc0	equ	0xFEE
  3069                           wreg	equ	0xFE8
  3070                           postdec1	equ	0xFE5
  3071                           fsr1l	equ	0xFE1
  3072                           status	equ	0xFD8
  3073                           
  3074 ;; *************** function _Serial_begin *****************
  3075 ;; Defined at:
  3076 ;;		line 2081 in file "../../picuno/picuno.c"
  3077 ;; Parameters:    Size  Location     Type
  3078 ;;  speed           4   11[BANK0 ] unsigned long 
  3079 ;; Auto vars:     Size  Location     Type
  3080 ;;		None
  3081 ;; Return value:  Size  Location     Type
  3082 ;;		None               void
  3083 ;; Registers used:
  3084 ;;		wreg, status,2, status,0, cstack
  3085 ;; Tracked objects:
  3086 ;;		On entry : 0/0
  3087 ;;		On exit  : 0/0
  3088 ;;		Unchanged: 0/0
  3089 ;; Data sizes:     COMRAM   BANK0   BANK1   BANK2   BANK3   BANK4   BANK5
  3090 ;;      Params:         0       4       0       0       0       0       0
  3091 ;;      Locals:         0       0       0       0       0       0       0
  3092 ;;      Temps:          0       0       0       0       0       0       0
  3093 ;;      Totals:         0       4       0       0       0       0       0
  3094 ;;Total ram usage:        4 bytes
  3095 ;; Hardware stack levels used:    1
  3096 ;; Hardware stack levels required when called:    5
  3097 ;; This function calls:
  3098 ;;		_uart_brg_set
  3099 ;; This function is called by:
  3100 ;;		_setup
  3101 ;; This function uses a non-reentrant model
  3102 ;;
  3103                           
  3104                           	psect	text7
  3105  001368                     __ptext7:
  3106                           	opt stack 0
  3107  001368                     _Serial_begin:
  3108                           	opt stack 24
  3109                           
  3110                           ;picuno.c: 2083: uart_brg_set(1,speed);
  3111                           
  3112                           ; BSR set to: 15
  3113                           ;incstack = 0
  3114  001368  C0FC  F0F1         	movff	Serial_begin@speed,uart_brg_set@speed
  3115  00136C  C0FD  F0F2         	movff	Serial_begin@speed+1,uart_brg_set@speed+1
  3116  001370  C0FE  F0F3         	movff	Serial_begin@speed+2,uart_brg_set@speed+2
  3117  001374  C0FF  F0F4         	movff	Serial_begin@speed+3,uart_brg_set@speed+3
  3118  001378  0E01               	movlw	1
  3119  00137A  ECE3  F006         	call	_uart_brg_set
  3120                           
  3121                           ;picuno.c: 2088: BAUDCON1bits.BRG16 = 1;
  3122  00137E  86B8               	bsf	4024,3,c	;volatile
  3123                           
  3124                           ;picuno.c: 2090: TXSTA=0x24;
  3125  001380  0E24               	movlw	36
  3126  001382  6EAC               	movwf	4012,c	;volatile
  3127                           
  3128                           ;picuno.c: 2091: RCSTA=0x90;
  3129  001384  0E90               	movlw	144
  3130  001386  6EAB               	movwf	4011,c	;volatile
  3131                           
  3132                           ;picuno.c: 2092: RCIE = 1;
  3133  001388  8A9D               	bsf	3997,5,c	;volatile
  3134                           
  3135                           ;picuno.c: 2093: TXIE = 0;
  3136  00138A  989D               	bcf	3997,4,c	;volatile
  3137                           
  3138                           ;picuno.c: 2094: TXIP = 1;
  3139  00138C  889F               	bsf	3999,4,c	;volatile
  3140                           
  3141                           ;picuno.c: 2095: RCIP = 1;
  3142  00138E  8A9F               	bsf	3999,5,c	;volatile
  3143  001390  0012               	return	
  3144  001392                     __end_of_Serial_begin:
  3145                           	opt stack 0
  3146                           tblptru	equ	0xFF8
  3147                           tblptrh	equ	0xFF7
  3148                           tblptrl	equ	0xFF6
  3149                           tablat	equ	0xFF5
  3150                           postinc0	equ	0xFEE
  3151                           wreg	equ	0xFE8
  3152                           postdec1	equ	0xFE5
  3153                           fsr1l	equ	0xFE1
  3154                           status	equ	0xFD8
  3155                           
  3156 ;; *************** function _uart_brg_set *****************
  3157 ;; Defined at:
  3158 ;;		line 2052 in file "../../picuno/picuno.c"
  3159 ;; Parameters:    Size  Location     Type
  3160 ;;  com             1    wreg     unsigned char 
  3161 ;;  speed           4    0[BANK0 ] unsigned long 
  3162 ;; Auto vars:     Size  Location     Type
  3163 ;;  com             1    8[BANK0 ] unsigned char 
  3164 ;;  brgh            1   10[BANK0 ] unsigned char 
  3165 ;;  brgl            1    9[BANK0 ] unsigned char 
  3166 ;; Return value:  Size  Location     Type
  3167 ;;		None               void
  3168 ;; Registers used:
  3169 ;;		wreg, status,2, status,0, cstack
  3170 ;; Tracked objects:
  3171 ;;		On entry : 0/0
  3172 ;;		On exit  : 0/0
  3173 ;;		Unchanged: 0/0
  3174 ;; Data sizes:     COMRAM   BANK0   BANK1   BANK2   BANK3   BANK4   BANK5
  3175 ;;      Params:         0       4       0       0       0       0       0
  3176 ;;      Locals:         0       3       0       0       0       0       0
  3177 ;;      Temps:          0       4       0       0       0       0       0
  3178 ;;      Totals:         0      11       0       0       0       0       0
  3179 ;;Total ram usage:       11 bytes
  3180 ;; Hardware stack levels used:    1
  3181 ;; Hardware stack levels required when called:    4
  3182 ;; This function calls:
  3183 ;;		___lldiv
  3184 ;; This function is called by:
  3185 ;;		_Serial_begin
  3186 ;;		_Serial2_begin
  3187 ;; This function uses a non-reentrant model
  3188 ;;
  3189                           
  3190                           	psect	text8
  3191  000DC6                     __ptext8:
  3192                           	opt stack 0
  3193  000DC6                     _uart_brg_set:
  3194                           	opt stack 24
  3195                           
  3196                           ;incstack = 0
  3197                           ;uart_brg_set@com stored from wreg
  3198  000DC6  0100               	movlb	0	; () banked
  3199  000DC8  6FF9               	movwf	uart_brg_set@com& (0+255),b
  3200                           
  3201                           ; BSR set to: 0
  3202                           ;picuno.c: 2054: byte brgl,brgh;
  3203                           ;picuno.c: 2056: speed = speed / 10;
  3204  000DCA  C0F1  F03E         	movff	uart_brg_set@speed,___lldiv@dividend
  3205  000DCE  C0F2  F03F         	movff	uart_brg_set@speed+1,___lldiv@dividend+1
  3206  000DD2  C0F3  F040         	movff	uart_brg_set@speed+2,___lldiv@dividend+2
  3207  000DD6  C0F4  F041         	movff	uart_brg_set@speed+3,___lldiv@dividend+3
  3208  000DDA  0E0A               	movlw	10
  3209  000DDC  6E42               	movwf	___lldiv@divisor,c
  3210  000DDE  0E00               	movlw	0
  3211  000DE0  6E43               	movwf	___lldiv@divisor+1,c
  3212  000DE2  0E00               	movlw	0
  3213  000DE4  6E44               	movwf	___lldiv@divisor+2,c
  3214  000DE6  0E00               	movlw	0
  3215  000DE8  6E45               	movwf	___lldiv@divisor+3,c
  3216  000DEA  EC6C  F008         	call	___lldiv	;wreg free
  3217  000DEE  C03E  F0F1         	movff	?___lldiv,uart_brg_set@speed
  3218  000DF2  C03F  F0F2         	movff	?___lldiv+1,uart_brg_set@speed+1
  3219  000DF6  C040  F0F3         	movff	?___lldiv+2,uart_brg_set@speed+2
  3220  000DFA  C041  F0F4         	movff	?___lldiv+3,uart_brg_set@speed+3
  3221                           
  3222                           ;picuno.c: 2057: speed = 64000000UL / speed;
  3223  000DFE  0E00               	movlw	0
  3224  000E00  6E3E               	movwf	___lldiv@dividend,c
  3225  000E02  0E90               	movlw	144
  3226  000E04  6E3F               	movwf	___lldiv@dividend+1,c
  3227  000E06  0ED0               	movlw	208
  3228  000E08  6E40               	movwf	___lldiv@dividend+2,c
  3229  000E0A  0E03               	movlw	3
  3230  000E0C  6E41               	movwf	___lldiv@dividend+3,c
  3231  000E0E  C0F1  F042         	movff	uart_brg_set@speed,___lldiv@divisor
  3232  000E12  C0F2  F043         	movff	uart_brg_set@speed+1,___lldiv@divisor+1
  3233  000E16  C0F3  F044         	movff	uart_brg_set@speed+2,___lldiv@divisor+2
  3234  000E1A  C0F4  F045         	movff	uart_brg_set@speed+3,___lldiv@divisor+3
  3235  000E1E  EC6C  F008         	call	___lldiv	;wreg free
  3236  000E22  C03E  F0F1         	movff	?___lldiv,uart_brg_set@speed
  3237  000E26  C03F  F0F2         	movff	?___lldiv+1,uart_brg_set@speed+1
  3238  000E2A  C040  F0F3         	movff	?___lldiv+2,uart_brg_set@speed+2
  3239  000E2E  C041  F0F4         	movff	?___lldiv+3,uart_brg_set@speed+3
  3240                           
  3241                           ;picuno.c: 2058: speed = speed / 4;
  3242  000E32  0100               	movlb	0	; () banked
  3243  000E34  C0F1  F0F5         	movff	uart_brg_set@speed,??_uart_brg_set
  3244  000E38  0100               	movlb	0	; () banked
  3245  000E3A  C0F2  F0F6         	movff	uart_brg_set@speed+1,??_uart_brg_set+1
  3246  000E3E  0100               	movlb	0	; () banked
  3247  000E40  C0F3  F0F7         	movff	uart_brg_set@speed+2,??_uart_brg_set+2
  3248  000E44  0100               	movlb	0	; () banked
  3249  000E46  C0F4  F0F8         	movff	uart_brg_set@speed+3,??_uart_brg_set+3
  3250  000E4A  0E03               	movlw	3
  3251  000E4C  D006               	goto	u6870
  3252  000E4E                     u6875:
  3253  000E4E  0100               	movlb	0	; () banked
  3254  000E50  90D8               	bcf	status,0,c
  3255  000E52  33F8               	rrcf	(??_uart_brg_set+3)& (0+255),f,b
  3256  000E54  33F7               	rrcf	(??_uart_brg_set+2)& (0+255),f,b
  3257  000E56  33F6               	rrcf	(??_uart_brg_set+1)& (0+255),f,b
  3258  000E58  33F5               	rrcf	??_uart_brg_set& (0+255),f,b
  3259  000E5A                     u6870:
  3260  000E5A  2EE8               	decfsz	wreg,f,c
  3261  000E5C  D7F8               	goto	u6875
  3262  000E5E  C0F5  F0F1         	movff	??_uart_brg_set,uart_brg_set@speed
  3263  000E62  C0F6  F0F2         	movff	??_uart_brg_set+1,uart_brg_set@speed+1
  3264  000E66  C0F7  F0F3         	movff	??_uart_brg_set+2,uart_brg_set@speed+2
  3265  000E6A  C0F8  F0F4         	movff	??_uart_brg_set+3,uart_brg_set@speed+3
  3266                           
  3267                           ; BSR set to: 0
  3268                           ;picuno.c: 2059: speed = speed + 5;
  3269  000E6E  0E05               	movlw	5
  3270  000E70  0100               	movlb	0	; () banked
  3271  000E72  25F1               	addwf	uart_brg_set@speed& (0+255),w,b
  3272  000E74  0100               	movlb	0	; () banked
  3273  000E76  6FF1               	movwf	uart_brg_set@speed& (0+255),b
  3274  000E78  0E00               	movlw	0
  3275  000E7A  0100               	movlb	0	; () banked
  3276  000E7C  21F2               	addwfc	(uart_brg_set@speed+1)& (0+255),w,b
  3277  000E7E  0100               	movlb	0	; () banked
  3278  000E80  6FF2               	movwf	(uart_brg_set@speed+1)& (0+255),b
  3279  000E82  0E00               	movlw	0
  3280  000E84  0100               	movlb	0	; () banked
  3281  000E86  21F3               	addwfc	(uart_brg_set@speed+2)& (0+255),w,b
  3282  000E88  0100               	movlb	0	; () banked
  3283  000E8A  6FF3               	movwf	(uart_brg_set@speed+2)& (0+255),b
  3284  000E8C  0E00               	movlw	0
  3285  000E8E  0100               	movlb	0	; () banked
  3286  000E90  21F4               	addwfc	(uart_brg_set@speed+3)& (0+255),w,b
  3287  000E92  0100               	movlb	0	; () banked
  3288  000E94  6FF4               	movwf	(uart_brg_set@speed+3)& (0+255),b
  3289                           
  3290                           ;picuno.c: 2060: speed = speed / 10;
  3291  000E96  C0F1  F03E         	movff	uart_brg_set@speed,___lldiv@dividend
  3292  000E9A  C0F2  F03F         	movff	uart_brg_set@speed+1,___lldiv@dividend+1
  3293  000E9E  C0F3  F040         	movff	uart_brg_set@speed+2,___lldiv@dividend+2
  3294  000EA2  C0F4  F041         	movff	uart_brg_set@speed+3,___lldiv@dividend+3
  3295  000EA6  0E0A               	movlw	10
  3296  000EA8  6E42               	movwf	___lldiv@divisor,c
  3297  000EAA  0E00               	movlw	0
  3298  000EAC  6E43               	movwf	___lldiv@divisor+1,c
  3299  000EAE  0E00               	movlw	0
  3300  000EB0  6E44               	movwf	___lldiv@divisor+2,c
  3301  000EB2  0E00               	movlw	0
  3302  000EB4  6E45               	movwf	___lldiv@divisor+3,c
  3303  000EB6  EC6C  F008         	call	___lldiv	;wreg free
  3304  000EBA  C03E  F0F1         	movff	?___lldiv,uart_brg_set@speed
  3305  000EBE  C03F  F0F2         	movff	?___lldiv+1,uart_brg_set@speed+1
  3306  000EC2  C040  F0F3         	movff	?___lldiv+2,uart_brg_set@speed+2
  3307  000EC6  C041  F0F4         	movff	?___lldiv+3,uart_brg_set@speed+3
  3308                           
  3309                           ;picuno.c: 2061: speed--;
  3310  000ECA  0100               	movlb	0	; () banked
  3311  000ECC  07F1               	decf	uart_brg_set@speed& (0+255),f,b
  3312  000ECE  0E00               	movlw	0
  3313  000ED0  0100               	movlb	0	; () banked
  3314  000ED2  5BF2               	subwfb	(uart_brg_set@speed+1)& (0+255),f,b
  3315  000ED4  0100               	movlb	0	; () banked
  3316  000ED6  5BF3               	subwfb	(uart_brg_set@speed+2)& (0+255),f,b
  3317  000ED8  0100               	movlb	0	; () banked
  3318  000EDA  5BF4               	subwfb	(uart_brg_set@speed+3)& (0+255),f,b
  3319                           
  3320                           ; BSR set to: 0
  3321                           ;picuno.c: 2062: brgh = (unsigned char)(speed>>8);
  3322  000EDC  C0F2  F0FB         	movff	uart_brg_set@speed+1,uart_brg_set@brgh
  3323                           
  3324                           ; BSR set to: 0
  3325                           ;picuno.c: 2063: brgl = (unsigned char)(speed);
  3326  000EE0  C0F1  F0FA         	movff	uart_brg_set@speed,uart_brg_set@brgl
  3327                           
  3328                           ; BSR set to: 0
  3329                           ;picuno.c: 2064: if(com==1)
  3330  000EE4  0100               	movlb	0	; () banked
  3331  000EE6  05F9               	decf	uart_brg_set@com& (0+255),w,b
  3332  000EE8  A4D8               	btfss	status,2,c
  3333  000EEA  D005               	goto	l1010
  3334                           
  3335                           ; BSR set to: 0
  3336                           ;picuno.c: 2065: {
  3337                           ;picuno.c: 2066: SPBRGH = brgh;
  3338  000EEC  C0FB  FFB0         	movff	uart_brg_set@brgh,4016	;volatile
  3339                           
  3340                           ;picuno.c: 2067: SPBRG1 = brgl;
  3341  000EF0  C0FA  FFAF         	movff	uart_brg_set@brgl,4015	;volatile
  3342                           
  3343                           ;picuno.c: 2068: }
  3344  000EF4  0012               	return	
  3345  000EF6                     l1010:
  3346                           
  3347                           ; BSR set to: 0
  3348                           ;picuno.c: 2069: else
  3349                           ;picuno.c: 2070: {
  3350                           ;picuno.c: 2072: SPBRGH2 = brgh;
  3351  000EF6  C0FB  FF76         	movff	uart_brg_set@brgh,3958	;volatile
  3352                           
  3353                           ;picuno.c: 2073: SPBRG2 = brgl;
  3354  000EFA  C0FA  FF75         	movff	uart_brg_set@brgl,3957	;volatile
  3355  000EFE  0012               	return	
  3356  000F00                     __end_of_uart_brg_set:
  3357                           	opt stack 0
  3358                           tblptru	equ	0xFF8
  3359                           tblptrh	equ	0xFF7
  3360                           tblptrl	equ	0xFF6
  3361                           tablat	equ	0xFF5
  3362                           postinc0	equ	0xFEE
  3363                           wreg	equ	0xFE8
  3364                           postdec1	equ	0xFE5
  3365                           fsr1l	equ	0xFE1
  3366                           status	equ	0xFD8
  3367                           
  3368 ;; *************** function ___lldiv *****************
  3369 ;; Defined at:
  3370 ;;		line 8 in file "C:\Program Files (x86)\Microchip\xc8\v1.33\sources\common\lldiv.c"
  3371 ;; Parameters:    Size  Location     Type
  3372 ;;  dividend        4   17[COMRAM] unsigned long 
  3373 ;;  divisor         4   21[COMRAM] unsigned long 
  3374 ;; Auto vars:     Size  Location     Type
  3375 ;;  quotient        4   25[COMRAM] unsigned long 
  3376 ;;  counter         1   29[COMRAM] unsigned char 
  3377 ;; Return value:  Size  Location     Type
  3378 ;;                  4   17[COMRAM] unsigned long 
  3379 ;; Registers used:
  3380 ;;		wreg, status,2, status,0
  3381 ;; Tracked objects:
  3382 ;;		On entry : 0/0
  3383 ;;		On exit  : 0/0
  3384 ;;		Unchanged: 0/0
  3385 ;; Data sizes:     COMRAM   BANK0   BANK1   BANK2   BANK3   BANK4   BANK5
  3386 ;;      Params:         8       0       0       0       0       0       0
  3387 ;;      Locals:         5       0       0       0       0       0       0
  3388 ;;      Temps:          0       0       0       0       0       0       0
  3389 ;;      Totals:        13       0       0       0       0       0       0
  3390 ;;Total ram usage:       13 bytes
  3391 ;; Hardware stack levels used:    1
  3392 ;; Hardware stack levels required when called:    3
  3393 ;; This function calls:
  3394 ;;		Nothing
  3395 ;; This function is called by:
  3396 ;;		_uart_brg_set
  3397 ;;		_i2c_init
  3398 ;;		_timerSet
  3399 ;; This function uses a non-reentrant model
  3400 ;;
  3401                           
  3402                           	psect	text9
  3403  0010D8                     __ptext9:
  3404                           	opt stack 0
  3405  0010D8                     ___lldiv:
  3406                           	opt stack 25
  3407                           
  3408                           ; BSR set to: 0
  3409                           ;incstack = 0
  3410  0010D8  0E00               	movlw	0
  3411  0010DA  6E46               	movwf	___lldiv@quotient,c
  3412  0010DC  0E00               	movlw	0
  3413  0010DE  6E47               	movwf	___lldiv@quotient+1,c
  3414  0010E0  0E00               	movlw	0
  3415  0010E2  6E48               	movwf	___lldiv@quotient+2,c
  3416  0010E4  0E00               	movlw	0
  3417  0010E6  6E49               	movwf	___lldiv@quotient+3,c
  3418  0010E8  5045               	movf	___lldiv@divisor+3,w,c
  3419  0010EA  1042               	iorwf	___lldiv@divisor,w,c
  3420  0010EC  1043               	iorwf	___lldiv@divisor+1,w,c
  3421  0010EE  1044               	iorwf	___lldiv@divisor+2,w,c
  3422  0010F0  B4D8               	btfsc	status,2,c
  3423  0010F2  D02A               	goto	l1932
  3424  0010F4  0E01               	movlw	1
  3425  0010F6  6E4A               	movwf	___lldiv@counter,c
  3426  0010F8  D006               	goto	l6044
  3427  0010FA                     l6042:
  3428  0010FA  90D8               	bcf	status,0,c
  3429  0010FC  3642               	rlcf	___lldiv@divisor,f,c
  3430  0010FE  3643               	rlcf	___lldiv@divisor+1,f,c
  3431  001100  3644               	rlcf	___lldiv@divisor+2,f,c
  3432  001102  3645               	rlcf	___lldiv@divisor+3,f,c
  3433  001104  2A4A               	incf	___lldiv@counter,f,c
  3434  001106                     l6044:
  3435  001106  AE45               	btfss	___lldiv@divisor+3,7,c
  3436  001108  D7F8               	goto	l6042
  3437  00110A                     l6046:
  3438  00110A  90D8               	bcf	status,0,c
  3439  00110C  3646               	rlcf	___lldiv@quotient,f,c
  3440  00110E  3647               	rlcf	___lldiv@quotient+1,f,c
  3441  001110  3648               	rlcf	___lldiv@quotient+2,f,c
  3442  001112  3649               	rlcf	___lldiv@quotient+3,f,c
  3443  001114  5042               	movf	___lldiv@divisor,w,c
  3444  001116  5C3E               	subwf	___lldiv@dividend,w,c
  3445  001118  5043               	movf	___lldiv@divisor+1,w,c
  3446  00111A  583F               	subwfb	___lldiv@dividend+1,w,c
  3447  00111C  5044               	movf	___lldiv@divisor+2,w,c
  3448  00111E  5840               	subwfb	___lldiv@dividend+2,w,c
  3449  001120  5045               	movf	___lldiv@divisor+3,w,c
  3450  001122  5841               	subwfb	___lldiv@dividend+3,w,c
  3451  001124  A0D8               	btfss	status,0,c
  3452  001126  D009               	goto	l6054
  3453  001128  5042               	movf	___lldiv@divisor,w,c
  3454  00112A  5E3E               	subwf	___lldiv@dividend,f,c
  3455  00112C  5043               	movf	___lldiv@divisor+1,w,c
  3456  00112E  5A3F               	subwfb	___lldiv@dividend+1,f,c
  3457  001130  5044               	movf	___lldiv@divisor+2,w,c
  3458  001132  5A40               	subwfb	___lldiv@dividend+2,f,c
  3459  001134  5045               	movf	___lldiv@divisor+3,w,c
  3460  001136  5A41               	subwfb	___lldiv@dividend+3,f,c
  3461  001138  8046               	bsf	___lldiv@quotient,0,c
  3462  00113A                     l6054:
  3463  00113A  90D8               	bcf	status,0,c
  3464  00113C  3245               	rrcf	___lldiv@divisor+3,f,c
  3465  00113E  3244               	rrcf	___lldiv@divisor+2,f,c
  3466  001140  3243               	rrcf	___lldiv@divisor+1,f,c
  3467  001142  3242               	rrcf	___lldiv@divisor,f,c
  3468  001144  2E4A               	decfsz	___lldiv@counter,f,c
  3469  001146  D7E1               	goto	l6046
  3470  001148                     l1932:
  3471  001148  C046  F03E         	movff	___lldiv@quotient,?___lldiv
  3472  00114C  C047  F03F         	movff	___lldiv@quotient+1,?___lldiv+1
  3473  001150  C048  F040         	movff	___lldiv@quotient+2,?___lldiv+2
  3474  001154  C049  F041         	movff	___lldiv@quotient+3,?___lldiv+3
  3475  001158  0012               	return	
  3476  00115A                     __end_of___lldiv:
  3477                           	opt stack 0
  3478                           tblptru	equ	0xFF8
  3479                           tblptrh	equ	0xFF7
  3480                           tblptrl	equ	0xFF6
  3481                           tablat	equ	0xFF5
  3482                           postinc0	equ	0xFEE
  3483                           wreg	equ	0xFE8
  3484                           postdec1	equ	0xFE5
  3485                           fsr1l	equ	0xFE1
  3486                           status	equ	0xFD8
  3487                           
  3488 ;; *************** function _loop *****************
  3489 ;; Defined at:
  3490 ;;		line 17 in file "i2c_scanner.c"
  3491 ;; Parameters:    Size  Location     Type
  3492 ;;		None
  3493 ;; Auto vars:     Size  Location     Type
  3494 ;;  nDevices        2    1[BANK1 ] int 
  3495 ;;  address         1    3[BANK1 ] unsigned char 
  3496 ;;  error           1    0[BANK1 ] unsigned char 
  3497 ;; Return value:  Size  Location     Type
  3498 ;;		None               void
  3499 ;; Registers used:
  3500 ;;		wreg, fsr0l, fsr0h, fsr2l, fsr2h, status,2, status,0, tblptrl, tblptrh, tblptru, prodl, prodh, cstack
  3501 ;; Tracked objects:
  3502 ;;		On entry : 0/0
  3503 ;;		On exit  : 0/0
  3504 ;;		Unchanged: 0/0
  3505 ;; Data sizes:     COMRAM   BANK0   BANK1   BANK2   BANK3   BANK4   BANK5
  3506 ;;      Params:         0       0       0       0       0       0       0
  3507 ;;      Locals:         0       0       4       0       0       0       0
  3508 ;;      Temps:          0       0       0       0       0       0       0
  3509 ;;      Totals:         0       0       4       0       0       0       0
  3510 ;;Total ram usage:        4 bytes
  3511 ;; Hardware stack levels used:    1
  3512 ;; Hardware stack levels required when called:    5
  3513 ;; This function calls:
  3514 ;;		_Serial_println
  3515 ;;		_b_i2c_error_flag
  3516 ;;		_delay
  3517 ;;		_i2c_out
  3518 ;;		_sprintf
  3519 ;; This function is called by:
  3520 ;;		_main
  3521 ;; This function uses a non-reentrant model
  3522 ;;
  3523                           
  3524                           	psect	text10
  3525  000F00                     __ptext10:
  3526                           	opt stack 0
  3527  000F00                     _loop:
  3528                           	opt stack 25
  3529                           
  3530                           ;i2c_scanner.c: 18: byte error, address;
  3531                           ;i2c_scanner.c: 19: int nDevices;
  3532                           ;i2c_scanner.c: 21: Serial_println("Scanning...");
  3533                           
  3534                           ;incstack = 0
  3535  000F00  0E06               	movlw	high STR_2
  3536  000F02  6E41               	movwf	Serial_println@str+1,c
  3537  000F04  0E61               	movlw	low STR_2
  3538  000F06  6E40               	movwf	Serial_println@str,c
  3539  000F08  ECAD  F008         	call	_Serial_println	;wreg free
  3540                           
  3541                           ;i2c_scanner.c: 22: nDevices = 0;
  3542  000F0C  0E00               	movlw	0
  3543  000F0E  0101               	movlb	1	; () banked
  3544  000F10  6FC2               	movwf	(loop@nDevices+1)& (0+255),b
  3545  000F12  0E00               	movlw	0
  3546  000F14  0101               	movlb	1	; () banked
  3547  000F16  6FC1               	movwf	loop@nDevices& (0+255),b
  3548                           
  3549                           ; BSR set to: 1
  3550                           ;i2c_scanner.c: 23: for(address = 1; address < 127; address++ )
  3551  000F18  0E01               	movlw	1
  3552  000F1A  0101               	movlb	1	; () banked
  3553  000F1C  6FC3               	movwf	loop@address& (0+255),b
  3554  000F1E  D02A               	goto	L1
  3555  000F20                     l6332:
  3556                           
  3557                           ; BSR set to: 1
  3558                           ;i2c_scanner.c: 24: {
  3559                           ;i2c_scanner.c: 25: i2c_out(address,0x00);
  3560  000F20  0E00               	movlw	0
  3561  000F22  6E3F               	movwf	i2c_out@data,c
  3562  000F24  0101               	movlb	1	; () banked
  3563  000F26  51C3               	movf	loop@address& (0+255),w,b
  3564  000F28  EC55  F009         	call	_i2c_out
  3565                           
  3566                           ;i2c_scanner.c: 26: error = b_i2c_error_flag();
  3567  000F2C  EC17  F00A         	call	_b_i2c_error_flag	;wreg free
  3568  000F30  0101               	movlb	1	; () banked
  3569  000F32  6FC0               	movwf	loop@error& (0+255),b
  3570                           
  3571                           ; BSR set to: 1
  3572                           ;i2c_scanner.c: 28: if(error == 0){
  3573  000F34  0101               	movlb	1	; () banked
  3574  000F36  67C0               	tstfsz	loop@error& (0+255),b
  3575  000F38  D01B               	goto	l6344
  3576                           
  3577                           ; BSR set to: 1
  3578                           ;i2c_scanner.c: 29: sprintf(buf,"I2C device found at address 0x%.2X!",address);
  3579  000F3A  0100               	movlb	0	; () banked
  3580  000F3C  0E00               	movlw	high _buf
  3581  000F3E  6E46               	movwf	sprintf@sp+1,c
  3582  000F40  0100               	movlb	0	; () banked
  3583  000F42  0ED1               	movlw	low _buf
  3584  000F44  6E45               	movwf	sprintf@sp,c
  3585  000F46  0E06               	movlw	high STR_3
  3586  000F48  6E48               	movwf	sprintf@f+1,c
  3587  000F4A  0E09               	movlw	low STR_3
  3588  000F4C  6E47               	movwf	sprintf@f,c
  3589  000F4E  0101               	movlb	1	; () banked
  3590  000F50  C1C3  F049         	movff	loop@address,?_sprintf+4
  3591  000F54  6A4A               	clrf	?_sprintf+5,c
  3592  000F56  ECE1  F005         	call	_sprintf	;wreg free
  3593                           
  3594                           ;i2c_scanner.c: 30: Serial_println(buf);
  3595  000F5A  0100               	movlb	0	; () banked
  3596  000F5C  0E00               	movlw	high _buf
  3597  000F5E  6E41               	movwf	Serial_println@str+1,c
  3598  000F60  0100               	movlb	0	; () banked
  3599  000F62  0ED1               	movlw	low _buf
  3600  000F64  6E40               	movwf	Serial_println@str,c
  3601  000F66  ECAD  F008         	call	_Serial_println	;wreg free
  3602                           
  3603                           ;i2c_scanner.c: 31: nDevices++;
  3604  000F6A  0101               	movlb	1	; () banked
  3605  000F6C  4BC1               	infsnz	loop@nDevices& (0+255),f,b
  3606  000F6E  2BC2               	incf	(loop@nDevices+1)& (0+255),f,b
  3607  000F70                     l6344:
  3608                           
  3609                           ; BSR set to: 1
  3610  000F70  0101               	movlb	1	; () banked
  3611  000F72  2BC3               	incf	loop@address& (0+255),f,b
  3612  000F74                     L1:
  3613                           
  3614                           ; BSR set to: 1
  3615  000F74  0E7E               	movlw	126
  3616  000F76  0101               	movlb	1	; () banked
  3617  000F78  65C3               	cpfsgt	loop@address& (0+255),b
  3618  000F7A  D7D2               	goto	l6332
  3619                           
  3620                           ; BSR set to: 1
  3621                           ;i2c_scanner.c: 32: }
  3622                           ;i2c_scanner.c: 33: }
  3623                           ;i2c_scanner.c: 34: if (nDevices == 0)
  3624                           
  3625                           ; BSR set to: 1
  3626  000F7C  0101               	movlb	1	; () banked
  3627  000F7E  51C2               	movf	(loop@nDevices+1)& (0+255),w,b
  3628  000F80  11C1               	iorwf	loop@nDevices& (0+255),w,b
  3629  000F82  A4D8               	btfss	status,2,c
  3630  000F84  D007               	goto	l6352
  3631                           
  3632                           ; BSR set to: 1
  3633                           ;i2c_scanner.c: 35: Serial_println("No I2C devices found\n");
  3634  000F86  0E06               	movlw	high STR_4
  3635  000F88  6E41               	movwf	Serial_println@str+1,c
  3636  000F8A  0E2D               	movlw	low STR_4
  3637  000F8C  6E40               	movwf	Serial_println@str,c
  3638  000F8E  ECAD  F008         	call	_Serial_println	;wreg free
  3639  000F92  D006               	goto	l6354
  3640  000F94                     l6352:
  3641                           
  3642                           ;i2c_scanner.c: 36: else
  3643                           ;i2c_scanner.c: 37: Serial_println("done\n");
  3644  000F94  0E06               	movlw	high STR_5
  3645  000F96  6E41               	movwf	Serial_println@str+1,c
  3646  000F98  0E6D               	movlw	low STR_5
  3647  000F9A  6E40               	movwf	Serial_println@str,c
  3648  000F9C  ECAD  F008         	call	_Serial_println	;wreg free
  3649  000FA0                     l6354:
  3650                           
  3651                           ;i2c_scanner.c: 39: delay(5000);
  3652  000FA0  0E13               	movlw	19
  3653  000FA2  6E3F               	movwf	delay@ms+1,c
  3654  000FA4  0E88               	movlw	136
  3655  000FA6  6E3E               	movwf	delay@ms,c
  3656  000FA8  EC9E  F009         	call	_delay	;wreg free
  3657  000FAC  0012               	return	
  3658  000FAE                     __end_of_loop:
  3659                           	opt stack 0
  3660                           tblptru	equ	0xFF8
  3661                           tblptrh	equ	0xFF7
  3662                           tblptrl	equ	0xFF6
  3663                           tablat	equ	0xFF5
  3664                           postinc0	equ	0xFEE
  3665                           wreg	equ	0xFE8
  3666                           postdec1	equ	0xFE5
  3667                           fsr1l	equ	0xFE1
  3668                           status	equ	0xFD8
  3669                           
  3670 ;; *************** function _sprintf *****************
  3671 ;; Defined at:
  3672 ;;		line 492 in file "C:\Program Files (x86)\Microchip\xc8\v1.33\sources\common\doprnt.c"
  3673 ;; Parameters:    Size  Location     Type
  3674 ;;  sp              2   24[COMRAM] PTR unsigned char 
  3675 ;;		 -> buf(32), 
  3676 ;;  f               2   26[COMRAM] PTR const unsigned char 
  3677 ;;		 -> STR_3(36), 
  3678 ;; Auto vars:     Size  Location     Type
  3679 ;;  idx             1    3[BANK0 ] unsigned char 
  3680 ;;  _val            5    6[BANK0 ] struct .
  3681 ;;  ap              2    4[BANK0 ] PTR void [1]
  3682 ;;		 -> ?_sprintf(2), 
  3683 ;;  c               1   12[BANK0 ] char 
  3684 ;;  prec            1   11[BANK0 ] char 
  3685 ;;  flag            1    2[BANK0 ] unsigned char 
  3686 ;; Return value:  Size  Location     Type
  3687 ;;                  2   24[COMRAM] int 
  3688 ;; Registers used:
  3689 ;;		wreg, fsr2l, fsr2h, status,2, status,0, tblptrl, tblptrh, tblptru, prodl, prodh, cstack
  3690 ;; Tracked objects:
  3691 ;;		On entry : 0/0
  3692 ;;		On exit  : 0/0
  3693 ;;		Unchanged: 0/0
  3694 ;; Data sizes:     COMRAM   BANK0   BANK1   BANK2   BANK3   BANK4   BANK5
  3695 ;;      Params:         6       0       0       0       0       0       0
  3696 ;;      Locals:         0      11       0       0       0       0       0
  3697 ;;      Temps:          0       2       0       0       0       0       0
  3698 ;;      Totals:         6      13       0       0       0       0       0
  3699 ;;Total ram usage:       19 bytes
  3700 ;; Hardware stack levels used:    1
  3701 ;; Hardware stack levels required when called:    4
  3702 ;; This function calls:
  3703 ;;		___lwdiv
  3704 ;;		_isdigit
  3705 ;; This function is called by:
  3706 ;;		_loop
  3707 ;; This function uses a non-reentrant model
  3708 ;;
  3709                           
  3710                           	psect	text11
  3711  000BC2                     __ptext11:
  3712                           	opt stack 0
  3713  000BC2                     _sprintf:
  3714                           	opt stack 25
  3715                           
  3716                           ;doprnt.c: 494: va_list ap;
  3717                           ;doprnt.c: 499: signed char c;
  3718                           ;doprnt.c: 506: signed char prec;
  3719                           ;doprnt.c: 508: unsigned char flag;
  3720                           ;doprnt.c: 527: union {
  3721                           ;doprnt.c: 528: unsigned int _val;
  3722                           ;doprnt.c: 529: struct {
  3723                           ;doprnt.c: 530: const char * _cp;
  3724                           ;doprnt.c: 531: unsigned _len;
  3725                           ;doprnt.c: 532: } _str;
  3726                           ;doprnt.c: 533: } _val;
  3727                           ;doprnt.c: 542: *ap = __va_start();
  3728                           
  3729                           ;incstack = 0
  3730  000BC2  0E00               	movlw	high (?_sprintf+4)
  3731  000BC4  0100               	movlb	0	; () banked
  3732  000BC6  6FF6               	movwf	(sprintf@ap+1)& (0+255),b
  3733  000BC8  0E49               	movlw	low (?_sprintf+4)
  3734  000BCA  0100               	movlb	0	; () banked
  3735  000BCC  6FF5               	movwf	sprintf@ap& (0+255),b
  3736                           
  3737                           ;doprnt.c: 545: while(c = *f++) {
  3738  000BCE  D0E7               	goto	l6274
  3739  000BD0                     l6206:
  3740                           
  3741                           ; BSR set to: 0
  3742                           ;doprnt.c: 547: if(c != '%')
  3743  000BD0  0100               	movlb	0	; () banked
  3744  000BD2  51FD               	movf	sprintf@c& (0+255),w,b
  3745  000BD4  0A25               	xorlw	37
  3746  000BD6  B4D8               	btfsc	status,2,c
  3747  000BD8  D00A               	goto	l6212
  3748                           
  3749                           ; BSR set to: 0
  3750                           ;doprnt.c: 549: {
  3751                           ;doprnt.c: 550: ((*sp++ = (c)));
  3752  000BDA  C045  FFD9         	movff	sprintf@sp,fsr2l
  3753  000BDE  C046  FFDA         	movff	sprintf@sp+1,fsr2h
  3754  000BE2  0100               	movlb	0	; () banked
  3755  000BE4  C0FD  FFDF         	movff	sprintf@c,indf2
  3756                           
  3757                           ; BSR set to: 0
  3758  000BE8  4A45               	infsnz	sprintf@sp,f,c
  3759  000BEA  2A46               	incf	sprintf@sp+1,f,c
  3760                           
  3761                           ;doprnt.c: 551: continue;
  3762  000BEC  D0D8               	goto	l6274
  3763  000BEE                     l6212:
  3764                           
  3765                           ; BSR set to: 0
  3766                           ;doprnt.c: 552: }
  3767                           ;doprnt.c: 557: flag = 0;
  3768  000BEE  0E00               	movlw	0
  3769  000BF0  0100               	movlb	0	; () banked
  3770  000BF2  6FF3               	movwf	sprintf@flag& (0+255),b
  3771                           
  3772                           ; BSR set to: 0
  3773                           ;doprnt.c: 620: if(*f == '.') {
  3774  000BF4  C047  FFF6         	movff	sprintf@f,tblptrl
  3775  000BF8  C048  FFF7         	movff	sprintf@f+1,tblptrh
  3776  000BFC                     	if	0	;tblptru may be non-zero
  3777  000BFC                     	endif
  3778  000BFC                     	if	0	;tblptru may be non-zero
  3779  000BFC                     	endif
  3780  000BFC  0008               	tblrd		*
  3781  000BFE  50F5               	movf	tablat,w,c
  3782  000C00  0A2E               	xorlw	46
  3783  000C02  A4D8               	btfss	status,2,c
  3784  000C04  D023               	goto	l6226
  3785                           
  3786                           ; BSR set to: 0
  3787                           ;doprnt.c: 622: f++;
  3788  000C06  4A47               	infsnz	sprintf@f,f,c
  3789  000C08  2A48               	incf	sprintf@f+1,f,c
  3790                           
  3791                           ; BSR set to: 0
  3792                           ;doprnt.c: 629: {
  3793                           ;doprnt.c: 630: prec = 0;
  3794  000C0A  0E00               	movlw	0
  3795  000C0C  0100               	movlb	0	; () banked
  3796  000C0E  6FFC               	movwf	sprintf@prec& (0+255),b
  3797                           
  3798                           ;doprnt.c: 631: while(isdigit((unsigned)*f))
  3799  000C10  D012               	goto	l6224
  3800  000C12                     l6220:
  3801                           
  3802                           ;doprnt.c: 632: prec = prec*10 + *f++ - '0';
  3803  000C12  C047  FFF6         	movff	sprintf@f,tblptrl
  3804  000C16  C048  FFF7         	movff	sprintf@f+1,tblptrh
  3805  000C1A                     	if	0	;tblptru may be non-zero
  3806  000C1A                     	endif
  3807  000C1A                     	if	0	;tblptru may be non-zero
  3808  000C1A                     	endif
  3809  000C1A  0008               	tblrd		*
  3810  000C1C  CFF5 F0F1          	movff	tablat,??_sprintf
  3811  000C20  0100               	movlb	0	; () banked
  3812  000C22  51FC               	movf	sprintf@prec& (0+255),w,b
  3813  000C24  0D0A               	mullw	10
  3814  000C26  50F3               	movf	prodl,w,c
  3815  000C28  0100               	movlb	0	; () banked
  3816  000C2A  25F1               	addwf	??_sprintf& (0+255),w,b
  3817  000C2C  0FD0               	addlw	208
  3818  000C2E  0100               	movlb	0	; () banked
  3819  000C30  6FFC               	movwf	sprintf@prec& (0+255),b
  3820                           
  3821                           ; BSR set to: 0
  3822  000C32  4A47               	infsnz	sprintf@f,f,c
  3823  000C34  2A48               	incf	sprintf@f+1,f,c
  3824  000C36                     l6224:
  3825                           
  3826                           ; BSR set to: 0
  3827  000C36  C047  FFF6         	movff	sprintf@f,tblptrl
  3828  000C3A  C048  FFF7         	movff	sprintf@f+1,tblptrh
  3829  000C3E                     	if	0	;tblptru may be non-zero
  3830  000C3E                     	endif
  3831  000C3E                     	if	0	;tblptru may be non-zero
  3832  000C3E                     	endif
  3833  000C3E  0008               	tblrd		*
  3834  000C40  50F5               	movf	tablat,w,c
  3835  000C42  ECDA  F009         	call	_isdigit
  3836  000C46  A0D8               	btfss	status,0,c
  3837  000C48  D004               	goto	l6230
  3838  000C4A  D7E3               	goto	l6220
  3839  000C4C                     l6226:
  3840                           
  3841                           ;doprnt.c: 635: prec = 0;
  3842  000C4C  0E00               	movlw	0
  3843  000C4E  0100               	movlb	0	; () banked
  3844  000C50  6FFC               	movwf	sprintf@prec& (0+255),b
  3845  000C52                     l6230:
  3846  000C52  C047  FFF6         	movff	sprintf@f,tblptrl
  3847  000C56  C048  FFF7         	movff	sprintf@f+1,tblptrh
  3848  000C5A  4A47               	infsnz	sprintf@f,f,c
  3849  000C5C  2A48               	incf	sprintf@f+1,f,c
  3850  000C5E                     	if	0	;tblptru may be non-zero
  3851  000C5E                     	endif
  3852  000C5E                     	if	0	;tblptru may be non-zero
  3853  000C5E                     	endif
  3854  000C5E  0008               	tblrd		*
  3855  000C60  0100               	movlb	0	; () banked
  3856  000C62  CFF5 F0FD          	movff	tablat,sprintf@c
  3857  000C66  0100               	movlb	0	; () banked
  3858  000C68  51FD               	movf	sprintf@c& (0+255),w,b
  3859                           
  3860                           ; Switch size 1, requested type "space"
  3861                           ; Number of cases is 3, Range of values is 0 to 120
  3862                           ; switch strategies available:
  3863                           ; Name         Instructions Cycles
  3864                           ; simple_byte           10     6 (average)
  3865                           ;	Chosen strategy is simple_byte
  3866  000C6A  0A00               	xorlw	0	; case 0
  3867  000C6C  B4D8               	btfsc	status,2,c
  3868  000C6E  D0A4               	goto	l6276
  3869  000C70  0A58               	xorlw	88	; case 88
  3870  000C72  B4D8               	btfsc	status,2,c
  3871  000C74  D003               	goto	l6232
  3872  000C76  0A20               	xorlw	32	; case 120
  3873  000C78  A4D8               	btfss	status,2,c
  3874  000C7A  D091               	goto	l6274
  3875  000C7C                     l6232:
  3876                           
  3877                           ; BSR set to: 0
  3878                           ;doprnt.c: 1282: {
  3879                           ;doprnt.c: 1295: _val._val = (*(unsigned *)__va_arg((*(unsigned **)ap), (unsigned)0));
  3880  000C7C  C0F5  FFD9         	movff	sprintf@ap,fsr2l
  3881  000C80  C0F6  FFDA         	movff	sprintf@ap+1,fsr2h
  3882  000C84  0100               	movlb	0	; () banked
  3883  000C86  CFDE F0F7          	movff	postinc2,sprintf@_val
  3884  000C8A  0100               	movlb	0	; () banked
  3885  000C8C  CFDD F0F8          	movff	postdec2,sprintf@_val+1
  3886                           
  3887                           ; BSR set to: 0
  3888  000C90  0E02               	movlw	2
  3889  000C92  0100               	movlb	0	; () banked
  3890  000C94  27F5               	addwf	sprintf@ap& (0+255),f,b
  3891  000C96  0E00               	movlw	0
  3892  000C98  0100               	movlb	0	; () banked
  3893  000C9A  23F6               	addwfc	(sprintf@ap+1)& (0+255),f,b
  3894                           
  3895                           ; BSR set to: 0
  3896                           ;doprnt.c: 1296: }
  3897                           ;doprnt.c: 1299: if(prec == 0 && _val._val == 0)
  3898  000C9C  0100               	movlb	0	; () banked
  3899  000C9E  67FC               	tstfsz	sprintf@prec& (0+255),b
  3900  000CA0  D007               	goto	l6242
  3901                           
  3902                           ; BSR set to: 0
  3903  000CA2  0100               	movlb	0	; () banked
  3904  000CA4  51F8               	movf	(sprintf@_val+1)& (0+255),w,b
  3905  000CA6  11F7               	iorwf	sprintf@_val& (0+255),w,b
  3906  000CA8  A4D8               	btfss	status,2,c
  3907  000CAA  D002               	goto	l6242
  3908                           
  3909                           ; BSR set to: 0
  3910                           ;doprnt.c: 1300: prec++;
  3911  000CAC  0100               	movlb	0	; () banked
  3912  000CAE  2BFC               	incf	sprintf@prec& (0+255),f,b
  3913  000CB0                     l6242:
  3914                           
  3915                           ; BSR set to: 0
  3916                           ;doprnt.c: 1325: for(c = 1 ; c != sizeof hexpowers/sizeof hexpowers[0] ; c++)
  3917  000CB0  0E01               	movlw	1
  3918  000CB2  0100               	movlb	0	; () banked
  3919  000CB4  6FFD               	movwf	sprintf@c& (0+255),b
  3920  000CB6                     
  3921                           ; BSR set to: 0
  3922  000CB6  0100               	movlb	0	; () banked
  3923  000CB8  51FD               	movf	sprintf@c& (0+255),w,b
  3924  000CBA  0A04               	xorlw	4
  3925  000CBC  B4D8               	btfsc	status,2,c
  3926  000CBE  D01C               	goto	l6256
  3927                           
  3928                           ; BSR set to: 0
  3929                           ;doprnt.c: 1326: if(_val._val < hexpowers[c])
  3930                           
  3931                           ; BSR set to: 0
  3932                           
  3933                           ; BSR set to: 0
  3934  000CC0  0100               	movlb	0	; () banked
  3935  000CC2  51FD               	movf	sprintf@c& (0+255),w,b
  3936  000CC4  0D02               	mullw	2
  3937  000CC6  0E01               	movlw	low _hexpowers
  3938  000CC8  24F3               	addwf	prodl,w,c
  3939  000CCA  6EF6               	movwf	tblptrl,c
  3940  000CCC  0E06               	movlw	high _hexpowers
  3941  000CCE  20F4               	addwfc	prodh,w,c
  3942  000CD0  6EF7               	movwf	tblptrh,c
  3943  000CD2                     	if	0	;There are less than 3 active tblptr bytes
  3944  000CD2                     	endif
  3945  000CD2  0009               	tblrd		*+
  3946  000CD4  CFF5 F0F1          	movff	tablat,??_sprintf
  3947  000CD8  0009               	tblrd		*+
  3948  000CDA  CFF5 F0F2          	movff	tablat,??_sprintf+1
  3949  000CDE  0100               	movlb	0	; () banked
  3950  000CE0  51F1               	movf	??_sprintf& (0+255),w,b
  3951  000CE2  0100               	movlb	0	; () banked
  3952  000CE4  5DF7               	subwf	sprintf@_val& (0+255),w,b
  3953  000CE6  0100               	movlb	0	; () banked
  3954  000CE8  51F2               	movf	(??_sprintf+1)& (0+255),w,b
  3955  000CEA  0100               	movlb	0	; () banked
  3956  000CEC  59F8               	subwfb	(sprintf@_val+1)& (0+255),w,b
  3957  000CEE  A0D8               	btfss	status,0,c
  3958  000CF0  D003               	goto	l6256
  3959                           
  3960                           ; BSR set to: 0
  3961                           
  3962                           ; BSR set to: 0
  3963                           
  3964                           ; BSR set to: 0
  3965                           ;doprnt.c: 1327: break;
  3966  000CF2  0100               	movlb	0	; () banked
  3967  000CF4  2BFD               	incf	sprintf@c& (0+255),f,b
  3968  000CF6  D7DF               	goto	L2
  3969  000CF8                     l6256:
  3970                           
  3971                           ; BSR set to: 0
  3972                           ;doprnt.c: 1348: if(c < prec)
  3973  000CF8  0100               	movlb	0	; () banked
  3974  000CFA  51FD               	movf	sprintf@c& (0+255),w,b
  3975  000CFC  0A80               	xorlw	128
  3976  000CFE  0100               	movlb	0	; () banked
  3977  000D00  6FF1               	movwf	??_sprintf& (0+255),b
  3978  000D02  0100               	movlb	0	; () banked
  3979  000D04  51FC               	movf	sprintf@prec& (0+255),w,b
  3980  000D06  0A80               	xorlw	128
  3981  000D08  0100               	movlb	0	; () banked
  3982  000D0A  5DF1               	subwf	??_sprintf& (0+255),w,b
  3983  000D0C  B0D8               	btfsc	status,0,c
  3984  000D0E  D003               	goto	l6260
  3985                           
  3986                           ; BSR set to: 0
  3987                           ;doprnt.c: 1349: c = prec;
  3988  000D10  C0FC  F0FD         	movff	sprintf@prec,sprintf@c
  3989  000D14  D03E               	goto	l6272
  3990  000D16                     l6260:
  3991                           
  3992                           ; BSR set to: 0
  3993                           ;doprnt.c: 1350: else if(prec < c)
  3994  000D16  0100               	movlb	0	; () banked
  3995  000D18  51FC               	movf	sprintf@prec& (0+255),w,b
  3996  000D1A  0A80               	xorlw	128
  3997  000D1C  0100               	movlb	0	; () banked
  3998  000D1E  6FF1               	movwf	??_sprintf& (0+255),b
  3999  000D20  0100               	movlb	0	; () banked
  4000  000D22  51FD               	movf	sprintf@c& (0+255),w,b
  4001  000D24  0A80               	xorlw	128
  4002  000D26  0100               	movlb	0	; () banked
  4003  000D28  5DF1               	subwf	??_sprintf& (0+255),w,b
  4004  000D2A  B0D8               	btfsc	status,0,c
  4005  000D2C  D032               	goto	l6272
  4006                           
  4007                           ; BSR set to: 0
  4008                           ;doprnt.c: 1351: prec = c;
  4009  000D2E  C0FD  F0FC         	movff	sprintf@c,sprintf@prec
  4010  000D32  D02F               	goto	l6272
  4011  000D34                     l6264:
  4012                           
  4013                           ; BSR set to: 0
  4014                           ;doprnt.c: 1487: {
  4015                           ;doprnt.c: 1508: {
  4016                           ;doprnt.c: 1509: unsigned char idx = (_val._val / hexpowers[prec]) & 0xF;
  4017  000D34  C0F7  F03E         	movff	sprintf@_val,___lwdiv@dividend
  4018  000D38  C0F8  F03F         	movff	sprintf@_val+1,___lwdiv@dividend+1
  4019  000D3C  0100               	movlb	0	; () banked
  4020  000D3E  51FC               	movf	sprintf@prec& (0+255),w,b
  4021  000D40  0D02               	mullw	2
  4022  000D42  0E01               	movlw	low _hexpowers
  4023  000D44  24F3               	addwf	prodl,w,c
  4024  000D46  6EF6               	movwf	tblptrl,c
  4025  000D48  0E06               	movlw	high _hexpowers
  4026  000D4A  20F4               	addwfc	prodh,w,c
  4027  000D4C  6EF7               	movwf	tblptrh,c
  4028  000D4E                     	if	0	;There are less than 3 active tblptr bytes
  4029  000D4E                     	endif
  4030  000D4E  0009               	tblrd		*+
  4031  000D50  CFF5 F040          	movff	tablat,___lwdiv@divisor
  4032  000D54  000A               	tblrd		*-
  4033  000D56  CFF5 F041          	movff	tablat,___lwdiv@divisor+1
  4034  000D5A  ECDC  F008         	call	___lwdiv	;wreg free
  4035  000D5E  503E               	movf	?___lwdiv,w,c
  4036  000D60  0B0F               	andlw	15
  4037  000D62  0100               	movlb	0	; () banked
  4038  000D64  6FF4               	movwf	sprintf@idx& (0+255),b
  4039                           
  4040                           ; BSR set to: 0
  4041                           ;doprnt.c: 1513: c = "0123456789ABCDEF"[idx];
  4042  000D66  0100               	movlb	0	; () banked
  4043  000D68  51F4               	movf	sprintf@idx& (0+255),w,b
  4044  000D6A  0D01               	mullw	1
  4045  000D6C  0E43               	movlw	low STR_6
  4046  000D6E  24F3               	addwf	prodl,w,c
  4047  000D70  6EF6               	movwf	tblptrl,c
  4048  000D72  0E06               	movlw	high STR_6
  4049  000D74  20F4               	addwfc	prodh,w,c
  4050  000D76  6EF7               	movwf	tblptrh,c
  4051  000D78                     	if	0	;There are less than 3 active tblptr bytes
  4052  000D78                     	endif
  4053  000D78  0008               	tblrd		*
  4054  000D7A  0100               	movlb	0	; () banked
  4055  000D7C  CFF5 F0FD          	movff	tablat,sprintf@c
  4056                           
  4057                           ; BSR set to: 0
  4058                           ;doprnt.c: 1517: }
  4059                           ;doprnt.c: 1532: }
  4060                           ;doprnt.c: 1533: ((*sp++ = (c)));
  4061  000D80  C045  FFD9         	movff	sprintf@sp,fsr2l
  4062  000D84  C046  FFDA         	movff	sprintf@sp+1,fsr2h
  4063  000D88  0100               	movlb	0	; () banked
  4064  000D8A  C0FD  FFDF         	movff	sprintf@c,indf2
  4065                           
  4066                           ; BSR set to: 0
  4067  000D8E  4A45               	infsnz	sprintf@sp,f,c
  4068  000D90  2A46               	incf	sprintf@sp+1,f,c
  4069  000D92                     l6272:
  4070                           
  4071                           ; BSR set to: 0
  4072  000D92  0100               	movlb	0	; () banked
  4073  000D94  07FC               	decf	sprintf@prec& (0+255),f,b
  4074  000D96  0100               	movlb	0	; () banked
  4075  000D98  29FC               	incf	sprintf@prec& (0+255),w,b
  4076  000D9A  A4D8               	btfss	status,2,c
  4077  000D9C  D7CB               	goto	l6264
  4078  000D9E                     l6274:
  4079                           
  4080                           ; BSR set to: 0
  4081  000D9E  C047  FFF6         	movff	sprintf@f,tblptrl
  4082  000DA2  C048  FFF7         	movff	sprintf@f+1,tblptrh
  4083  000DA6  4A47               	infsnz	sprintf@f,f,c
  4084  000DA8  2A48               	incf	sprintf@f+1,f,c
  4085  000DAA                     	if	0	;tblptru may be non-zero
  4086  000DAA                     	endif
  4087  000DAA                     	if	0	;tblptru may be non-zero
  4088  000DAA                     	endif
  4089  000DAA  0008               	tblrd		*
  4090  000DAC  0100               	movlb	0	; () banked
  4091  000DAE  CFF5 F0FD          	movff	tablat,sprintf@c
  4092  000DB2  0100               	movlb	0	; () banked
  4093  000DB4  67FD               	tstfsz	sprintf@c& (0+255),b
  4094  000DB6  D70C               	goto	l6206
  4095  000DB8                     l6276:
  4096                           
  4097                           ; BSR set to: 0
  4098                           ;doprnt.c: 1547: *sp = 0;
  4099  000DB8  C045  FFD9         	movff	sprintf@sp,fsr2l
  4100  000DBC  C046  FFDA         	movff	sprintf@sp+1,fsr2h
  4101  000DC0  0E00               	movlw	0
  4102  000DC2  6EDF               	movwf	indf2,c
  4103  000DC4  0012               	return	
  4104  000DC6                     __end_of_sprintf:
  4105                           	opt stack 0
  4106                           tblptru	equ	0xFF8
  4107                           tblptrh	equ	0xFF7
  4108                           tblptrl	equ	0xFF6
  4109                           tablat	equ	0xFF5
  4110                           prodh	equ	0xFF4
  4111                           prodl	equ	0xFF3
  4112                           postinc0	equ	0xFEE
  4113                           wreg	equ	0xFE8
  4114                           postdec1	equ	0xFE5
  4115                           fsr1l	equ	0xFE1
  4116                           indf2	equ	0xFDF
  4117                           postinc2	equ	0xFDE
  4118                           postdec2	equ	0xFDD
  4119                           fsr2h	equ	0xFDA
  4120                           fsr2l	equ	0xFD9
  4121                           status	equ	0xFD8
  4122                           
  4123 ;; *************** function _isdigit *****************
  4124 ;; Defined at:
  4125 ;;		line 8 in file "C:\Program Files (x86)\Microchip\xc8\v1.33\sources\common\isdigit.c"
  4126 ;; Parameters:    Size  Location     Type
  4127 ;;  c               1    wreg     unsigned char 
  4128 ;; Auto vars:     Size  Location     Type
  4129 ;;  c               1   19[COMRAM] unsigned char 
  4130 ;; Return value:  Size  Location     Type
  4131 ;;		None               void
  4132 ;; Registers used:
  4133 ;;		wreg, status,2, status,0
  4134 ;; Tracked objects:
  4135 ;;		On entry : 0/0
  4136 ;;		On exit  : 0/0
  4137 ;;		Unchanged: 0/0
  4138 ;; Data sizes:     COMRAM   BANK0   BANK1   BANK2   BANK3   BANK4   BANK5
  4139 ;;      Params:         0       0       0       0       0       0       0
  4140 ;;      Locals:         2       0       0       0       0       0       0
  4141 ;;      Temps:          1       0       0       0       0       0       0
  4142 ;;      Totals:         3       0       0       0       0       0       0
  4143 ;;Total ram usage:        3 bytes
  4144 ;; Hardware stack levels used:    1
  4145 ;; Hardware stack levels required when called:    3
  4146 ;; This function calls:
  4147 ;;		Nothing
  4148 ;; This function is called by:
  4149 ;;		_sprintf
  4150 ;; This function uses a non-reentrant model
  4151 ;;
  4152                           
  4153                           	psect	text12
  4154  0013B4                     __ptext12:
  4155                           	opt stack 0
  4156  0013B4                     _isdigit:
  4157                           	opt stack 25
  4158                           
  4159                           ; BSR set to: 0
  4160                           ;incstack = 0
  4161                           ;isdigit@c stored from wreg
  4162  0013B4  6E40               	movwf	isdigit@c,c
  4163  0013B6  0E00               	movlw	0
  4164  0013B8  6E3F               	movwf	_isdigit$3884,c
  4165  0013BA  0E3A               	movlw	58
  4166  0013BC  5C40               	subwf	isdigit@c,w,c
  4167  0013BE  B0D8               	btfsc	status,0,c
  4168  0013C0  D005               	goto	l6108
  4169  0013C2  0E2F               	movlw	47
  4170  0013C4  6440               	cpfsgt	isdigit@c,c
  4171  0013C6  D002               	goto	l6108
  4172  0013C8  0E01               	movlw	1
  4173  0013CA  6E3F               	movwf	_isdigit$3884,c
  4174  0013CC                     l6108:
  4175  0013CC  C03F  F03E         	movff	_isdigit$3884,??_isdigit
  4176  0013D0  303E               	rrcf	??_isdigit,w,c
  4177  0013D2  0012               	return	
  4178  0013D4                     __end_of_isdigit:
  4179                           	opt stack 0
  4180                           tblptru	equ	0xFF8
  4181                           tblptrh	equ	0xFF7
  4182                           tblptrl	equ	0xFF6
  4183                           tablat	equ	0xFF5
  4184                           prodh	equ	0xFF4
  4185                           prodl	equ	0xFF3
  4186                           postinc0	equ	0xFEE
  4187                           wreg	equ	0xFE8
  4188                           postdec1	equ	0xFE5
  4189                           fsr1l	equ	0xFE1
  4190                           indf2	equ	0xFDF
  4191                           postinc2	equ	0xFDE
  4192                           postdec2	equ	0xFDD
  4193                           fsr2h	equ	0xFDA
  4194                           fsr2l	equ	0xFD9
  4195                           status	equ	0xFD8
  4196                           
  4197 ;; *************** function ___lwdiv *****************
  4198 ;; Defined at:
  4199 ;;		line 8 in file "C:\Program Files (x86)\Microchip\xc8\v1.33\sources\common\lwdiv.c"
  4200 ;; Parameters:    Size  Location     Type
  4201 ;;  dividend        2   17[COMRAM] unsigned int 
  4202 ;;  divisor         2   19[COMRAM] unsigned int 
  4203 ;; Auto vars:     Size  Location     Type
  4204 ;;  quotient        2   22[COMRAM] unsigned int 
  4205 ;;  counter         1   21[COMRAM] unsigned char 
  4206 ;; Return value:  Size  Location     Type
  4207 ;;                  2   17[COMRAM] unsigned int 
  4208 ;; Registers used:
  4209 ;;		wreg, status,2, status,0
  4210 ;; Tracked objects:
  4211 ;;		On entry : 0/0
  4212 ;;		On exit  : 0/0
  4213 ;;		Unchanged: 0/0
  4214 ;; Data sizes:     COMRAM   BANK0   BANK1   BANK2   BANK3   BANK4   BANK5
  4215 ;;      Params:         4       0       0       0       0       0       0
  4216 ;;      Locals:         3       0       0       0       0       0       0
  4217 ;;      Temps:          0       0       0       0       0       0       0
  4218 ;;      Totals:         7       0       0       0       0       0       0
  4219 ;;Total ram usage:        7 bytes
  4220 ;; Hardware stack levels used:    1
  4221 ;; Hardware stack levels required when called:    3
  4222 ;; This function calls:
  4223 ;;		Nothing
  4224 ;; This function is called by:
  4225 ;;		_sprintf
  4226 ;;		_lcd_puti
  4227 ;;		_Serial_puti
  4228 ;;		_Serial2_puti
  4229 ;; This function uses a non-reentrant model
  4230 ;;
  4231                           
  4232                           	psect	text13
  4233  0011B8                     __ptext13:
  4234                           	opt stack 0
  4235  0011B8                     ___lwdiv:
  4236                           	opt stack 25
  4237                           
  4238                           ;incstack = 0
  4239  0011B8  0E00               	movlw	0
  4240  0011BA  6E44               	movwf	___lwdiv@quotient+1,c
  4241  0011BC  0E00               	movlw	0
  4242  0011BE  6E43               	movwf	___lwdiv@quotient,c
  4243  0011C0  5041               	movf	___lwdiv@divisor+1,w,c
  4244  0011C2  1040               	iorwf	___lwdiv@divisor,w,c
  4245  0011C4  B4D8               	btfsc	status,2,c
  4246  0011C6  D01C               	goto	l1995
  4247  0011C8  0E01               	movlw	1
  4248  0011CA  6E42               	movwf	___lwdiv@counter,c
  4249  0011CC  D004               	goto	l6120
  4250  0011CE                     l6118:
  4251  0011CE  90D8               	bcf	status,0,c
  4252  0011D0  3640               	rlcf	___lwdiv@divisor,f,c
  4253  0011D2  3641               	rlcf	___lwdiv@divisor+1,f,c
  4254  0011D4  2A42               	incf	___lwdiv@counter,f,c
  4255  0011D6                     l6120:
  4256  0011D6  AE41               	btfss	___lwdiv@divisor+1,7,c
  4257  0011D8  D7FA               	goto	l6118
  4258  0011DA                     l6122:
  4259  0011DA  90D8               	bcf	status,0,c
  4260  0011DC  3643               	rlcf	___lwdiv@quotient,f,c
  4261  0011DE  3644               	rlcf	___lwdiv@quotient+1,f,c
  4262  0011E0  5040               	movf	___lwdiv@divisor,w,c
  4263  0011E2  5C3E               	subwf	___lwdiv@dividend,w,c
  4264  0011E4  5041               	movf	___lwdiv@divisor+1,w,c
  4265  0011E6  583F               	subwfb	___lwdiv@dividend+1,w,c
  4266  0011E8  A0D8               	btfss	status,0,c
  4267  0011EA  D005               	goto	l6130
  4268  0011EC  5040               	movf	___lwdiv@divisor,w,c
  4269  0011EE  5E3E               	subwf	___lwdiv@dividend,f,c
  4270  0011F0  5041               	movf	___lwdiv@divisor+1,w,c
  4271  0011F2  5A3F               	subwfb	___lwdiv@dividend+1,f,c
  4272  0011F4  8043               	bsf	___lwdiv@quotient,0,c
  4273  0011F6                     l6130:
  4274  0011F6  90D8               	bcf	status,0,c
  4275  0011F8  3241               	rrcf	___lwdiv@divisor+1,f,c
  4276  0011FA  3240               	rrcf	___lwdiv@divisor,f,c
  4277  0011FC  2E42               	decfsz	___lwdiv@counter,f,c
  4278  0011FE  D7ED               	goto	l6122
  4279  001200                     l1995:
  4280  001200  C043  F03E         	movff	___lwdiv@quotient,?___lwdiv
  4281  001204  C044  F03F         	movff	___lwdiv@quotient+1,?___lwdiv+1
  4282  001208  0012               	return	
  4283  00120A                     __end_of___lwdiv:
  4284                           	opt stack 0
  4285                           tblptru	equ	0xFF8
  4286                           tblptrh	equ	0xFF7
  4287                           tblptrl	equ	0xFF6
  4288                           tablat	equ	0xFF5
  4289                           prodh	equ	0xFF4
  4290                           prodl	equ	0xFF3
  4291                           postinc0	equ	0xFEE
  4292                           wreg	equ	0xFE8
  4293                           postdec1	equ	0xFE5
  4294                           fsr1l	equ	0xFE1
  4295                           indf2	equ	0xFDF
  4296                           postinc2	equ	0xFDE
  4297                           postdec2	equ	0xFDD
  4298                           fsr2h	equ	0xFDA
  4299                           fsr2l	equ	0xFD9
  4300                           status	equ	0xFD8
  4301                           
  4302 ;; *************** function _i2c_out *****************
  4303 ;; Defined at:
  4304 ;;		line 2664 in file "../../picuno/picuno.c"
  4305 ;; Parameters:    Size  Location     Type
  4306 ;;  slave_addres    1    wreg     unsigned char 
  4307 ;;  data            1   18[COMRAM] unsigned char 
  4308 ;; Auto vars:     Size  Location     Type
  4309 ;;  slave_addres    1   19[COMRAM] unsigned char 
  4310 ;; Return value:  Size  Location     Type
  4311 ;;		None               void
  4312 ;; Registers used:
  4313 ;;		wreg, status,2, status,0, cstack
  4314 ;; Tracked objects:
  4315 ;;		On entry : 0/0
  4316 ;;		On exit  : 0/0
  4317 ;;		Unchanged: 0/0
  4318 ;; Data sizes:     COMRAM   BANK0   BANK1   BANK2   BANK3   BANK4   BANK5
  4319 ;;      Params:         1       0       0       0       0       0       0
  4320 ;;      Locals:         1       0       0       0       0       0       0
  4321 ;;      Temps:          0       0       0       0       0       0       0
  4322 ;;      Totals:         2       0       0       0       0       0       0
  4323 ;;Total ram usage:        2 bytes
  4324 ;; Hardware stack levels used:    1
  4325 ;; Hardware stack levels required when called:    4
  4326 ;; This function calls:
  4327 ;;		_i2c_idle
  4328 ;; This function is called by:
  4329 ;;		_loop
  4330 ;;		_e_pulse
  4331 ;;		_lcd_putdata
  4332 ;;		_lcd_putc
  4333 ;;		_lcd_begin
  4334 ;; This function uses a non-reentrant model
  4335 ;;
  4336                           
  4337                           	psect	text14
  4338  0012AA                     __ptext14:
  4339                           	opt stack 0
  4340  0012AA                     _i2c_out:
  4341                           	opt stack 25
  4342                           
  4343                           ;incstack = 0
  4344                           ;i2c_out@slave_address stored from wreg
  4345  0012AA  6E40               	movwf	i2c_out@slave_address,c
  4346                           
  4347                           ;picuno.c: 2667: i2c_error_flag = 0;
  4348  0012AC  0E00               	movlw	0
  4349  0012AE  6E06               	movwf	_i2c_error_flag,c
  4350                           
  4351                           ;picuno.c: 2670: SSPCON2bits.SEN = 1;
  4352  0012B0  80C5               	bsf	4037,0,c	;volatile
  4353  0012B2                     l1227:
  4354  0012B2  B0C5               	btfsc	4037,0,c	;volatile
  4355  0012B4  D7FE               	goto	l1227
  4356                           
  4357                           ;picuno.c: 2674: SSP1BUF = (slave_address << 1) & 0xFE;
  4358  0012B6  5040               	movf	i2c_out@slave_address,w,c
  4359  0012B8  2440               	addwf	i2c_out@slave_address,w,c
  4360  0012BA  0BFE               	andlw	254
  4361  0012BC  6EC9               	movwf	4041,c	;volatile
  4362                           
  4363                           ;picuno.c: 2677: i2c_idle();
  4364  0012BE  ECEA  F009         	call	_i2c_idle	;wreg free
  4365                           
  4366                           ;picuno.c: 2679: if(SSPCON2bits.ACKSTAT == 1)
  4367  0012C2  ACC5               	btfss	4037,6,c	;volatile
  4368  0012C4  D006               	goto	l1230
  4369                           
  4370                           ;picuno.c: 2680: {
  4371                           ;picuno.c: 2682: SSPCON2bits.PEN = 1;
  4372  0012C6  84C5               	bsf	4037,2,c	;volatile
  4373  0012C8                     l1231:
  4374  0012C8  B4C5               	btfsc	4037,2,c	;volatile
  4375  0012CA  D7FE               	goto	l1231
  4376                           
  4377                           ;picuno.c: 2686: i2c_error_flag = 1;
  4378  0012CC  0E01               	movlw	1
  4379  0012CE  6E06               	movwf	_i2c_error_flag,c
  4380  0012D0  0012               	return	
  4381  0012D2                     l1230:
  4382                           
  4383                           ;picuno.c: 2688: }
  4384                           ;picuno.c: 2691: SSP1BUF = data;
  4385  0012D2  C03F  FFC9         	movff	i2c_out@data,4041	;volatile
  4386                           
  4387                           ;picuno.c: 2694: i2c_idle();
  4388  0012D6  ECEA  F009         	call	_i2c_idle	;wreg free
  4389                           
  4390                           ;picuno.c: 2696: if(SSPCON2bits.ACKSTAT == 1)
  4391  0012DA  ACC5               	btfss	4037,6,c	;volatile
  4392  0012DC  D006               	goto	l1235
  4393                           
  4394                           ;picuno.c: 2697: {
  4395                           ;picuno.c: 2699: SSPCON2bits.PEN = 1;
  4396  0012DE  84C5               	bsf	4037,2,c	;volatile
  4397  0012E0                     l1236:
  4398  0012E0  B4C5               	btfsc	4037,2,c	;volatile
  4399  0012E2  D7FE               	goto	l1236
  4400                           
  4401                           ;picuno.c: 2703: i2c_error_flag = 1;
  4402  0012E4  0E01               	movlw	1
  4403  0012E6  6E06               	movwf	_i2c_error_flag,c
  4404  0012E8  0012               	return	
  4405  0012EA                     l1235:
  4406                           
  4407                           ;picuno.c: 2705: }
  4408                           ;picuno.c: 2708: SSPCON2bits.PEN = 1;
  4409  0012EA  84C5               	bsf	4037,2,c	;volatile
  4410  0012EC                     l1239:
  4411  0012EC  B4C5               	btfsc	4037,2,c	;volatile
  4412  0012EE  D7FE               	goto	l1239
  4413                           
  4414                           ;picuno.c: 2712: i2c_error_flag = 0;
  4415  0012F0  0E00               	movlw	0
  4416  0012F2  6E06               	movwf	_i2c_error_flag,c
  4417  0012F4  0012               	return	
  4418  0012F6                     __end_of_i2c_out:
  4419                           	opt stack 0
  4420                           tblptru	equ	0xFF8
  4421                           tblptrh	equ	0xFF7
  4422                           tblptrl	equ	0xFF6
  4423                           tablat	equ	0xFF5
  4424                           prodh	equ	0xFF4
  4425                           prodl	equ	0xFF3
  4426                           postinc0	equ	0xFEE
  4427                           wreg	equ	0xFE8
  4428                           postdec1	equ	0xFE5
  4429                           fsr1l	equ	0xFE1
  4430                           indf2	equ	0xFDF
  4431                           postinc2	equ	0xFDE
  4432                           postdec2	equ	0xFDD
  4433                           fsr2h	equ	0xFDA
  4434                           fsr2l	equ	0xFD9
  4435                           status	equ	0xFD8
  4436                           
  4437 ;; *************** function _i2c_idle *****************
  4438 ;; Defined at:
  4439 ;;		line 2657 in file "../../picuno/picuno.c"
  4440 ;; Parameters:    Size  Location     Type
  4441 ;;		None
  4442 ;; Auto vars:     Size  Location     Type
  4443 ;;		None
  4444 ;; Return value:  Size  Location     Type
  4445 ;;		None               void
  4446 ;; Registers used:
  4447 ;;		wreg, status,2, status,0
  4448 ;; Tracked objects:
  4449 ;;		On entry : 0/0
  4450 ;;		On exit  : 0/0
  4451 ;;		Unchanged: 0/0
  4452 ;; Data sizes:     COMRAM   BANK0   BANK1   BANK2   BANK3   BANK4   BANK5
  4453 ;;      Params:         0       0       0       0       0       0       0
  4454 ;;      Locals:         0       0       0       0       0       0       0
  4455 ;;      Temps:          1       0       0       0       0       0       0
  4456 ;;      Totals:         1       0       0       0       0       0       0
  4457 ;;Total ram usage:        1 bytes
  4458 ;; Hardware stack levels used:    1
  4459 ;; Hardware stack levels required when called:    3
  4460 ;; This function calls:
  4461 ;;		Nothing
  4462 ;; This function is called by:
  4463 ;;		_i2c_out
  4464 ;;		_i2c_write
  4465 ;;		_i2c_read
  4466 ;; This function uses a non-reentrant model
  4467 ;;
  4468                           
  4469                           	psect	text15
  4470  0013D4                     __ptext15:
  4471                           	opt stack 0
  4472  0013D4                     _i2c_idle:
  4473                           	opt stack 25
  4474  0013D4                     l6098:
  4475  0013D4  A4C7               	btfss	4039,2,c	;volatile
  4476  0013D6  D003               	goto	u6920
  4477  0013D8  6A3E               	clrf	??_i2c_idle& (0+255),c
  4478  0013DA  2A3E               	incf	??_i2c_idle& (0+255),f,c
  4479  0013DC  D001               	goto	u6928
  4480  0013DE                     u6920:
  4481  0013DE  6A3E               	clrf	??_i2c_idle& (0+255),c
  4482  0013E0                     u6928:
  4483  0013E0  50C5               	movf	4037,w,c	;volatile
  4484  0013E2  0B1F               	andlw	31
  4485  0013E4  103E               	iorwf	??_i2c_idle,w,c
  4486  0013E6  0900               	iorlw	0
  4487  0013E8  B4D8               	btfsc	status,2,c
  4488  0013EA  0012               	return	
  4489  0013EC  D7F3               	goto	l6098
  4490  0013EE                     __end_of_i2c_idle:
  4491                           	opt stack 0
  4492                           tblptru	equ	0xFF8
  4493                           tblptrh	equ	0xFF7
  4494                           tblptrl	equ	0xFF6
  4495                           tablat	equ	0xFF5
  4496                           prodh	equ	0xFF4
  4497                           prodl	equ	0xFF3
  4498                           postinc0	equ	0xFEE
  4499                           wreg	equ	0xFE8
  4500                           postdec1	equ	0xFE5
  4501                           fsr1l	equ	0xFE1
  4502                           indf2	equ	0xFDF
  4503                           postinc2	equ	0xFDE
  4504                           postdec2	equ	0xFDD
  4505                           fsr2h	equ	0xFDA
  4506                           fsr2l	equ	0xFD9
  4507                           status	equ	0xFD8
  4508                           
  4509 ;; *************** function _delay *****************
  4510 ;; Defined at:
  4511 ;;		line 295 in file "../../picuno/picuno.c"
  4512 ;; Parameters:    Size  Location     Type
  4513 ;;  ms              2   17[COMRAM] unsigned int 
  4514 ;; Auto vars:     Size  Location     Type
  4515 ;;  i               2   19[COMRAM] unsigned int 
  4516 ;; Return value:  Size  Location     Type
  4517 ;;		None               void
  4518 ;; Registers used:
  4519 ;;		wreg, status,2, status,0
  4520 ;; Tracked objects:
  4521 ;;		On entry : 0/0
  4522 ;;		On exit  : 0/0
  4523 ;;		Unchanged: 0/0
  4524 ;; Data sizes:     COMRAM   BANK0   BANK1   BANK2   BANK3   BANK4   BANK5
  4525 ;;      Params:         2       0       0       0       0       0       0
  4526 ;;      Locals:         2       0       0       0       0       0       0
  4527 ;;      Temps:          0       0       0       0       0       0       0
  4528 ;;      Totals:         4       0       0       0       0       0       0
  4529 ;;Total ram usage:        4 bytes
  4530 ;; Hardware stack levels used:    1
  4531 ;; Hardware stack levels required when called:    3
  4532 ;; This function calls:
  4533 ;;		Nothing
  4534 ;; This function is called by:
  4535 ;;		_loop
  4536 ;;		_lcd_begin
  4537 ;; This function uses a non-reentrant model
  4538 ;;
  4539                           
  4540                           	psect	text16
  4541  00133C                     __ptext16:
  4542                           	opt stack 0
  4543  00133C                     _delay:
  4544                           	opt stack 26
  4545                           
  4546                           ;incstack = 0
  4547  00133C  0004               	clrwdt		;# 
  4548                           
  4549                           ;picuno.c: 301: while(ms){
  4550  00133E  D00F               	goto	l6290
  4551  001340                     l6282:
  4552                           
  4553                           ;picuno.c: 302: ms--;
  4554  001340  063E               	decf	delay@ms,f,c
  4555  001342  A0D8               	btfss	status,0,c
  4556  001344  063F               	decf	delay@ms+1,f,c
  4557                           
  4558                           ;picuno.c: 303: i=((64*16)+(64/4));
  4559  001346  0E04               	movlw	4
  4560  001348  6E41               	movwf	delay@i+1,c
  4561  00134A  0E10               	movlw	16
  4562  00134C  6E40               	movwf	delay@i,c
  4563                           
  4564                           ;picuno.c: 304: while(i) i--;
  4565  00134E  D003               	goto	l6288
  4566  001350                     l6286:
  4567  001350  0640               	decf	delay@i,f,c
  4568  001352  A0D8               	btfss	status,0,c
  4569  001354  0641               	decf	delay@i+1,f,c
  4570  001356                     l6288:
  4571  001356  5041               	movf	delay@i+1,w,c
  4572  001358  1040               	iorwf	delay@i,w,c
  4573  00135A  A4D8               	btfss	status,2,c
  4574  00135C  D7F9               	goto	l6286
  4575  00135E                     l6290:
  4576  00135E  503F               	movf	delay@ms+1,w,c
  4577  001360  103E               	iorwf	delay@ms,w,c
  4578  001362  B4D8               	btfsc	status,2,c
  4579  001364  0012               	return	
  4580  001366  D7EC               	goto	l6282
  4581  001368                     __end_of_delay:
  4582                           	opt stack 0
  4583                           tblptru	equ	0xFF8
  4584                           tblptrh	equ	0xFF7
  4585                           tblptrl	equ	0xFF6
  4586                           tablat	equ	0xFF5
  4587                           prodh	equ	0xFF4
  4588                           prodl	equ	0xFF3
  4589                           postinc0	equ	0xFEE
  4590                           wreg	equ	0xFE8
  4591                           postdec1	equ	0xFE5
  4592                           fsr1l	equ	0xFE1
  4593                           indf2	equ	0xFDF
  4594                           postinc2	equ	0xFDE
  4595                           postdec2	equ	0xFDD
  4596                           fsr2h	equ	0xFDA
  4597                           fsr2l	equ	0xFD9
  4598                           status	equ	0xFD8
  4599                           
  4600 ;; *************** function _b_i2c_error_flag *****************
  4601 ;; Defined at:
  4602 ;;		line 2652 in file "../../picuno/picuno.c"
  4603 ;; Parameters:    Size  Location     Type
  4604 ;;		None
  4605 ;; Auto vars:     Size  Location     Type
  4606 ;;		None
  4607 ;; Return value:  Size  Location     Type
  4608 ;;                  1    wreg      unsigned char 
  4609 ;; Registers used:
  4610 ;;		wreg, status,2
  4611 ;; Tracked objects:
  4612 ;;		On entry : 0/0
  4613 ;;		On exit  : 0/0
  4614 ;;		Unchanged: 0/0
  4615 ;; Data sizes:     COMRAM   BANK0   BANK1   BANK2   BANK3   BANK4   BANK5
  4616 ;;      Params:         0       0       0       0       0       0       0
  4617 ;;      Locals:         0       0       0       0       0       0       0
  4618 ;;      Temps:          0       0       0       0       0       0       0
  4619 ;;      Totals:         0       0       0       0       0       0       0
  4620 ;;Total ram usage:        0 bytes
  4621 ;; Hardware stack levels used:    1
  4622 ;; Hardware stack levels required when called:    3
  4623 ;; This function calls:
  4624 ;;		Nothing
  4625 ;; This function is called by:
  4626 ;;		_loop
  4627 ;; This function uses a non-reentrant model
  4628 ;;
  4629                           
  4630                           	psect	text17
  4631  00142E                     __ptext17:
  4632                           	opt stack 0
  4633  00142E                     _b_i2c_error_flag:
  4634                           	opt stack 26
  4635                           
  4636                           ;picuno.c: 2654: return i2c_error_flag;
  4637                           
  4638                           ;incstack = 0
  4639  00142E  5006               	movf	_i2c_error_flag,w,c
  4640  001430  0012               	return	
  4641  001432                     __end_of_b_i2c_error_flag:
  4642                           	opt stack 0
  4643                           tblptru	equ	0xFF8
  4644                           tblptrh	equ	0xFF7
  4645                           tblptrl	equ	0xFF6
  4646                           tablat	equ	0xFF5
  4647                           prodh	equ	0xFF4
  4648                           prodl	equ	0xFF3
  4649                           postinc0	equ	0xFEE
  4650                           wreg	equ	0xFE8
  4651                           postdec1	equ	0xFE5
  4652                           fsr1l	equ	0xFE1
  4653                           indf2	equ	0xFDF
  4654                           postinc2	equ	0xFDE
  4655                           postdec2	equ	0xFDD
  4656                           fsr2h	equ	0xFDA
  4657                           fsr2l	equ	0xFD9
  4658                           status	equ	0xFD8
  4659                           
  4660 ;; *************** function _Serial_println *****************
  4661 ;; Defined at:
  4662 ;;		line 2176 in file "../../picuno/picuno.c"
  4663 ;; Parameters:    Size  Location     Type
  4664 ;;  str             2   19[COMRAM] PTR const unsigned char 
  4665 ;;		 -> STR_5(6), STR_4(22), buf(32), STR_2(12), 
  4666 ;;		 -> STR_1(13), 
  4667 ;; Auto vars:     Size  Location     Type
  4668 ;;		None
  4669 ;; Return value:  Size  Location     Type
  4670 ;;		None               void
  4671 ;; Registers used:
  4672 ;;		wreg, fsr0l, fsr0h, fsr2l, fsr2h, status,2, status,0, tblptrl, tblptrh, tblptru, prodl, prodh, cstack
  4673 ;; Tracked objects:
  4674 ;;		On entry : 0/0
  4675 ;;		On exit  : 0/0
  4676 ;;		Unchanged: 0/0
  4677 ;; Data sizes:     COMRAM   BANK0   BANK1   BANK2   BANK3   BANK4   BANK5
  4678 ;;      Params:         2       0       0       0       0       0       0
  4679 ;;      Locals:         0       0       0       0       0       0       0
  4680 ;;      Temps:          0       0       0       0       0       0       0
  4681 ;;      Totals:         2       0       0       0       0       0       0
  4682 ;;Total ram usage:        2 bytes
  4683 ;; Hardware stack levels used:    1
  4684 ;; Hardware stack levels required when called:    4
  4685 ;; This function calls:
  4686 ;;		_Serial_putc
  4687 ;; This function is called by:
  4688 ;;		_setup
  4689 ;;		_loop
  4690 ;; This function uses a non-reentrant model
  4691 ;;
  4692                           
  4693                           	psect	text18
  4694  00115A                     __ptext18:
  4695                           	opt stack 0
  4696  00115A                     _Serial_println:
  4697                           	opt stack 25
  4698                           
  4699                           ;picuno.c: 2178: while(*str){
  4700                           
  4701                           ;incstack = 0
  4702  00115A  D014               	goto	l6168
  4703  00115C                     l6164:
  4704                           
  4705                           ;picuno.c: 2179: Serial_putc(*str);
  4706  00115C  C040  FFF6         	movff	Serial_println@str,tblptrl
  4707  001160  C041  FFF7         	movff	Serial_println@str+1,tblptrh
  4708  001164  6AF8               	clrf	tblptru,c
  4709  001166  0E05               	movlw	(high __ramtop+-1)
  4710  001168  64F7               	cpfsgt	tblptrh,c
  4711  00116A  D003               	bra	u7017
  4712  00116C  0008               	tblrd		*
  4713  00116E  50F5               	movf	tablat,w,c
  4714  001170  D005               	bra	u7010
  4715  001172                     u7017:
  4716  001172  CFF6 FFE9          	movff	tblptrl,fsr0l
  4717  001176  CFF7 FFEA          	movff	tblptrh,fsr0h
  4718  00117A  50EF               	movf	indf0,w,c
  4719  00117C                     u7010:
  4720  00117C  EC05  F009         	call	_Serial_putc
  4721                           
  4722                           ;picuno.c: 2180: str++;
  4723  001180  4A40               	infsnz	Serial_println@str,f,c
  4724  001182  2A41               	incf	Serial_println@str+1,f,c
  4725  001184                     l6168:
  4726  001184  C040  FFF6         	movff	Serial_println@str,tblptrl
  4727  001188  C041  FFF7         	movff	Serial_println@str+1,tblptrh
  4728  00118C  6AF8               	clrf	tblptru,c
  4729  00118E  0E05               	movlw	(high __ramtop+-1)
  4730  001190  64F7               	cpfsgt	tblptrh,c
  4731  001192  D003               	bra	u7027
  4732  001194  0008               	tblrd		*
  4733  001196  50F5               	movf	tablat,w,c
  4734  001198  D005               	bra	u7020
  4735  00119A                     u7027:
  4736  00119A  CFF6 FFE9          	movff	tblptrl,fsr0l
  4737  00119E  CFF7 FFEA          	movff	tblptrh,fsr0h
  4738  0011A2  50EF               	movf	indf0,w,c
  4739  0011A4                     u7020:
  4740  0011A4  0900               	iorlw	0
  4741  0011A6  A4D8               	btfss	status,2,c
  4742  0011A8  D7D9               	goto	l6164
  4743                           
  4744                           ;picuno.c: 2181: }
  4745                           ;picuno.c: 2182: Serial_putc(0x0D);
  4746  0011AA  0E0D               	movlw	13
  4747  0011AC  EC05  F009         	call	_Serial_putc
  4748                           
  4749                           ;picuno.c: 2183: Serial_putc(0x0A);
  4750  0011B0  0E0A               	movlw	10
  4751  0011B2  EC05  F009         	call	_Serial_putc
  4752  0011B6  0012               	return	
  4753  0011B8                     __end_of_Serial_println:
  4754                           	opt stack 0
  4755                           tblptru	equ	0xFF8
  4756                           tblptrh	equ	0xFF7
  4757                           tblptrl	equ	0xFF6
  4758                           tablat	equ	0xFF5
  4759                           prodh	equ	0xFF4
  4760                           prodl	equ	0xFF3
  4761                           indf0	equ	0xFEF
  4762                           postinc0	equ	0xFEE
  4763                           fsr0h	equ	0xFEA
  4764                           fsr0l	equ	0xFE9
  4765                           wreg	equ	0xFE8
  4766                           postdec1	equ	0xFE5
  4767                           fsr1l	equ	0xFE1
  4768                           indf2	equ	0xFDF
  4769                           postinc2	equ	0xFDE
  4770                           postdec2	equ	0xFDD
  4771                           fsr2h	equ	0xFDA
  4772                           fsr2l	equ	0xFD9
  4773                           status	equ	0xFD8
  4774                           
  4775 ;; *************** function _Serial_putc *****************
  4776 ;; Defined at:
  4777 ;;		line 2110 in file "../../picuno/picuno.c"
  4778 ;; Parameters:    Size  Location     Type
  4779 ;;  d               1    wreg     unsigned char 
  4780 ;; Auto vars:     Size  Location     Type
  4781 ;;  d               1   18[COMRAM] unsigned char 
  4782 ;;  p               1   17[COMRAM] unsigned char 
  4783 ;; Return value:  Size  Location     Type
  4784 ;;		None               void
  4785 ;; Registers used:
  4786 ;;		wreg, fsr2l, fsr2h, status,2, status,0, prodl, prodh
  4787 ;; Tracked objects:
  4788 ;;		On entry : 0/0
  4789 ;;		On exit  : 0/0
  4790 ;;		Unchanged: 0/0
  4791 ;; Data sizes:     COMRAM   BANK0   BANK1   BANK2   BANK3   BANK4   BANK5
  4792 ;;      Params:         0       0       0       0       0       0       0
  4793 ;;      Locals:         2       0       0       0       0       0       0
  4794 ;;      Temps:          0       0       0       0       0       0       0
  4795 ;;      Totals:         2       0       0       0       0       0       0
  4796 ;;Total ram usage:        2 bytes
  4797 ;; Hardware stack levels used:    1
  4798 ;; Hardware stack levels required when called:    3
  4799 ;; This function calls:
  4800 ;;		Nothing
  4801 ;; This function is called by:
  4802 ;;		_Serial_println
  4803 ;;		_Serial_crlf
  4804 ;;		_Serial_puth
  4805 ;;		_Serial_puti
  4806 ;;		_Serial_print
  4807 ;;		_Serial_write
  4808 ;;		_Serial_writeln
  4809 ;; This function uses a non-reentrant model
  4810 ;;
  4811                           
  4812                           	psect	text19
  4813  00120A                     __ptext19:
  4814                           	opt stack 0
  4815  00120A                     _Serial_putc:
  4816                           	opt stack 25
  4817                           
  4818                           ;incstack = 0
  4819                           ;Serial_putc@d stored from wreg
  4820  00120A  6E3F               	movwf	Serial_putc@d,c
  4821                           
  4822                           ;picuno.c: 2112: unsigned char p;
  4823                           ;picuno.c: 2117: if(uart1_tx_cnt)
  4824  00120C  5023               	movf	_uart1_tx_cnt,w,c
  4825  00120E  B4D8               	btfsc	status,2,c
  4826  001210  D018               	goto	l1024
  4827  001212                     l6078:
  4828  001212  5023               	movf	_uart1_tx_cnt,w,c
  4829  001214  0A20               	xorlw	32
  4830  001216  B4D8               	btfsc	status,2,c
  4831  001218  D7FC               	goto	l6078
  4832                           
  4833                           ;picuno.c: 2120: INTCONbits.GIEH = 0;
  4834  00121A  9EF2               	bcf	intcon,7,c	;volatile
  4835                           
  4836                           ;picuno.c: 2121: p = (uart1_tx_cnt + uart1_tx_pos) % 32;
  4837  00121C  5023               	movf	_uart1_tx_cnt,w,c
  4838  00121E  2424               	addwf	_uart1_tx_pos,w,c
  4839  001220  0B1F               	andlw	31
  4840  001222  6E3E               	movwf	Serial_putc@p,c
  4841                           
  4842                           ;picuno.c: 2122: uart1_txbuf[p] = d;
  4843  001224  503E               	movf	Serial_putc@p,w,c
  4844  001226  0D01               	mullw	1
  4845  001228  0100               	movlb	0	; () banked
  4846  00122A  0E60               	movlw	low _uart1_txbuf
  4847  00122C  24F3               	addwf	prodl,w,c
  4848  00122E  6ED9               	movwf	fsr2l,c
  4849  001230  0100               	movlb	0	; () banked
  4850  001232  0E00               	movlw	high _uart1_txbuf
  4851  001234  20F4               	addwfc	prodh,w,c
  4852  001236  6EDA               	movwf	fsr2h,c
  4853  001238  C03F  FFDF         	movff	Serial_putc@d,indf2
  4854                           
  4855                           ; BSR set to: 0
  4856                           ;picuno.c: 2123: uart1_tx_cnt++;
  4857  00123C  2A23               	incf	_uart1_tx_cnt,f,c
  4858                           
  4859                           ; BSR set to: 0
  4860                           ;picuno.c: 2124: INTCONbits.GIEH = 1;
  4861  00123E  8EF2               	bsf	intcon,7,c	;volatile
  4862                           
  4863                           ;picuno.c: 2125: }
  4864  001240  0012               	return	
  4865  001242                     l1024:
  4866                           
  4867                           ;picuno.c: 2126: else if(TXIF)
  4868  001242  A89E               	btfss	3998,4,c	;volatile
  4869  001244  D003               	goto	l6090
  4870                           
  4871                           ;picuno.c: 2127: {
  4872                           ;picuno.c: 2128: TXREG = d;
  4873  001246  C03F  FFAD         	movff	Serial_putc@d,4013	;volatile
  4874                           
  4875                           ;picuno.c: 2129: }
  4876  00124A  0012               	return	
  4877  00124C                     l6090:
  4878                           
  4879                           ;picuno.c: 2130: else
  4880                           ;picuno.c: 2131: {
  4881                           ;picuno.c: 2132: uart1_tx_cnt = 1;
  4882  00124C  0E01               	movlw	1
  4883  00124E  6E23               	movwf	_uart1_tx_cnt,c
  4884                           
  4885                           ;picuno.c: 2133: uart1_tx_pos = 0;
  4886  001250  0E00               	movlw	0
  4887  001252  6E24               	movwf	_uart1_tx_pos,c
  4888                           
  4889                           ;picuno.c: 2134: uart1_txbuf[0] = d;
  4890  001254  C03F  F060         	movff	Serial_putc@d,_uart1_txbuf
  4891                           
  4892                           ;picuno.c: 2135: TXIE = 1;
  4893  001258  889D               	bsf	3997,4,c	;volatile
  4894  00125A  0012               	return	
  4895  00125C                     __end_of_Serial_putc:
  4896                           	opt stack 0
  4897                           tblptru	equ	0xFF8
  4898                           tblptrh	equ	0xFF7
  4899                           tblptrl	equ	0xFF6
  4900                           tablat	equ	0xFF5
  4901                           prodh	equ	0xFF4
  4902                           prodl	equ	0xFF3
  4903                           intcon	equ	0xFF2
  4904                           indf0	equ	0xFEF
  4905                           postinc0	equ	0xFEE
  4906                           fsr0h	equ	0xFEA
  4907                           fsr0l	equ	0xFE9
  4908                           wreg	equ	0xFE8
  4909                           postdec1	equ	0xFE5
  4910                           fsr1l	equ	0xFE1
  4911                           indf2	equ	0xFDF
  4912                           postinc2	equ	0xFDE
  4913                           postdec2	equ	0xFDD
  4914                           fsr2h	equ	0xFDA
  4915                           fsr2l	equ	0xFD9
  4916                           status	equ	0xFD8
  4917                           
  4918 ;; *************** function _init *****************
  4919 ;; Defined at:
  4920 ;;		line 187 in file "../../picuno/picuno.c"
  4921 ;; Parameters:    Size  Location     Type
  4922 ;;		None
  4923 ;; Auto vars:     Size  Location     Type
  4924 ;;  i               1   17[COMRAM] unsigned char 
  4925 ;; Return value:  Size  Location     Type
  4926 ;;		None               void
  4927 ;; Registers used:
  4928 ;;		wreg, fsr2l, fsr2h, status,2, status,0, prodl, prodh
  4929 ;; Tracked objects:
  4930 ;;		On entry : 0/0
  4931 ;;		On exit  : 0/0
  4932 ;;		Unchanged: 0/0
  4933 ;; Data sizes:     COMRAM   BANK0   BANK1   BANK2   BANK3   BANK4   BANK5
  4934 ;;      Params:         0       0       0       0       0       0       0
  4935 ;;      Locals:         1       0       0       0       0       0       0
  4936 ;;      Temps:          0       0       0       0       0       0       0
  4937 ;;      Totals:         1       0       0       0       0       0       0
  4938 ;;Total ram usage:        1 bytes
  4939 ;; Hardware stack levels used:    1
  4940 ;; Hardware stack levels required when called:    3
  4941 ;; This function calls:
  4942 ;;		Nothing
  4943 ;; This function is called by:
  4944 ;;		_main
  4945 ;; This function uses a non-reentrant model
  4946 ;;
  4947                           
  4948                           	psect	text20
  4949  000FAE                     __ptext20:
  4950                           	opt stack 0
  4951  000FAE                     _init:
  4952                           	opt stack 27
  4953                           
  4954                           ;picuno.c: 189: byte i;
  4955                           ;picuno.c: 192: OSCCON = 0x70;
  4956                           
  4957                           ;incstack = 0
  4958  000FAE  0E70               	movlw	112
  4959  000FB0  6ED3               	movwf	4051,c	;volatile
  4960                           
  4961                           ;picuno.c: 194: OSCCON2 = 0x04;
  4962  000FB2  0E04               	movlw	4
  4963  000FB4  6ED2               	movwf	4050,c	;volatile
  4964                           
  4965                           ;picuno.c: 196: OSCTUNE = 0x40;
  4966  000FB6  0E40               	movlw	64
  4967  000FB8  6E9B               	movwf	3995,c	;volatile
  4968  000FBA                     l420:
  4969  000FBA  AED2               	btfss	4050,7,c	;volatile
  4970  000FBC  D7FE               	goto	l420
  4971                           
  4972                           ;picuno.c: 200: }
  4973                           ;picuno.c: 212: ANSELA = 0b00000000;
  4974  000FBE  0E00               	movlw	0
  4975  000FC0  010F               	movlb	15	; () banked
  4976  000FC2  6F38               	movwf	56,b	;volatile
  4977                           
  4978                           ;picuno.c: 213: ANSELB = 0b00000000;
  4979  000FC4  0E00               	movlw	0
  4980  000FC6  010F               	movlb	15	; () banked
  4981  000FC8  6F39               	movwf	57,b	;volatile
  4982                           
  4983                           ;picuno.c: 214: ANSELC = 0b00000000;
  4984  000FCA  0E00               	movlw	0
  4985  000FCC  010F               	movlb	15	; () banked
  4986  000FCE  6F3A               	movwf	58,b	;volatile
  4987                           
  4988                           ;picuno.c: 215: ANSELD = 0b00000000;
  4989  000FD0  0E00               	movlw	0
  4990  000FD2  010F               	movlb	15	; () banked
  4991  000FD4  6F3B               	movwf	59,b	;volatile
  4992                           
  4993                           ;picuno.c: 216: ANSELE = 0b00000000;
  4994  000FD6  0E00               	movlw	0
  4995  000FD8  010F               	movlb	15	; () banked
  4996  000FDA  6F3C               	movwf	60,b	;volatile
  4997                           
  4998                           ;picuno.c: 217: VREFCON0 = 0b10110000;
  4999  000FDC  0EB0               	movlw	176
  5000  000FDE  010F               	movlb	15	; () banked
  5001  000FE0  6F42               	movwf	66,b	;volatile
  5002                           
  5003                           ;picuno.c: 218: ADCON1 = 0b00110000;
  5004  000FE2  0E30               	movlw	48
  5005  000FE4  6EC1               	movwf	4033,c	;volatile
  5006                           
  5007                           ;picuno.c: 219: ADCON2 = 0b10000011;
  5008  000FE6  0E83               	movlw	131
  5009  000FE8  6EC0               	movwf	4032,c	;volatile
  5010                           
  5011                           ;picuno.c: 230: LATA = 0x00;
  5012  000FEA  0E00               	movlw	0
  5013  000FEC  6E89               	movwf	3977,c	;volatile
  5014                           
  5015                           ;picuno.c: 231: LATB = 0x00;
  5016  000FEE  0E00               	movlw	0
  5017  000FF0  6E8A               	movwf	3978,c	;volatile
  5018                           
  5019                           ;picuno.c: 232: LATC = 0x00;
  5020  000FF2  0E00               	movlw	0
  5021  000FF4  6E8B               	movwf	3979,c	;volatile
  5022                           
  5023                           ;picuno.c: 233: LATD = 0x00;
  5024  000FF6  0E00               	movlw	0
  5025  000FF8  6E8C               	movwf	3980,c	;volatile
  5026                           
  5027                           ;picuno.c: 234: LATE = 0x00;
  5028  000FFA  0E00               	movlw	0
  5029  000FFC  6E8D               	movwf	3981,c	;volatile
  5030                           
  5031                           ;picuno.c: 237: for(i=0;i<10;i++) TimerArray[i]=0;
  5032  000FFE  0E00               	movlw	0
  5033  001000  6E3E               	movwf	init@i,c
  5034  001002  D00F               	goto	L3
  5035  001004                     l4822:
  5036  001004  503E               	movf	init@i,w,c
  5037  001006  0D02               	mullw	2
  5038  001008  0100               	movlb	0	; () banked
  5039  00100A  0EA2               	movlw	low _TimerArray
  5040  00100C  24F3               	addwf	prodl,w,c
  5041  00100E  6ED9               	movwf	fsr2l,c
  5042  001010  0100               	movlb	0	; () banked
  5043  001012  0E00               	movlw	high _TimerArray
  5044  001014  20F4               	addwfc	prodh,w,c
  5045  001016  6EDA               	movwf	fsr2h,c
  5046  001018  0E00               	movlw	0
  5047  00101A  6EDE               	movwf	postinc2,c
  5048  00101C  0E00               	movlw	0
  5049  00101E  6EDD               	movwf	postdec2,c
  5050                           
  5051                           ; BSR set to: 0
  5052  001020  2A3E               	incf	init@i,f,c
  5053  001022                     L3:
  5054                           
  5055                           ; BSR set to: 0
  5056  001022  0E09               	movlw	9
  5057  001024  643E               	cpfsgt	init@i,c
  5058  001026  D7EE               	goto	l4822
  5059                           
  5060                           ;picuno.c: 240: T0CON = 0b00000000;
  5061                           
  5062                           ; BSR set to: 0
  5063  001028  0E00               	movlw	0
  5064  00102A  6ED5               	movwf	4053,c	;volatile
  5065                           
  5066                           ;picuno.c: 241: TMR0IF = 0;
  5067  00102C  94F2               	bcf	intcon,2,c	;volatile
  5068                           
  5069                           ;picuno.c: 242: TMR0IE = 1;
  5070  00102E  8AF2               	bsf	intcon,5,c	;volatile
  5071                           
  5072                           ;picuno.c: 243: TMR0IP = 1;
  5073  001030  84F1               	bsf	intcon2,2,c	;volatile
  5074                           
  5075                           ;picuno.c: 247: PIR1bits.TMR1IF = 0;
  5076  001032  909E               	bcf	3998,0,c	;volatile
  5077                           
  5078                           ;picuno.c: 249: T1GCON = 0x00;
  5079  001034  0E00               	movlw	0
  5080  001036  6ECC               	movwf	4044,c	;volatile
  5081                           
  5082                           ;picuno.c: 251: T1CON = 0x32;
  5083  001038  0E32               	movlw	50
  5084  00103A  6ECD               	movwf	4045,c	;volatile
  5085                           
  5086                           ;picuno.c: 267: T0CON = 0b10010001;
  5087  00103C  0E91               	movlw	145
  5088  00103E  6ED5               	movwf	4053,c	;volatile
  5089                           
  5090                           ;picuno.c: 270: PEIE = 1;
  5091  001040  8CF2               	bsf	intcon,6,c	;volatile
  5092                           
  5093                           ;picuno.c: 272: RCONbits.IPEN = 1;
  5094  001042  8ED0               	bsf	4048,7,c	;volatile
  5095                           
  5096                           ;picuno.c: 273: INTCONbits.GIEH = 1;
  5097  001044  8EF2               	bsf	intcon,7,c	;volatile
  5098  001046  0012               	return	
  5099  001048                     __end_of_init:
  5100                           	opt stack 0
  5101                           tblptru	equ	0xFF8
  5102                           tblptrh	equ	0xFF7
  5103                           tblptrl	equ	0xFF6
  5104                           tablat	equ	0xFF5
  5105                           prodh	equ	0xFF4
  5106                           prodl	equ	0xFF3
  5107                           intcon	equ	0xFF2
  5108                           intcon2	equ	0xFF1
  5109                           indf0	equ	0xFEF
  5110                           postinc0	equ	0xFEE
  5111                           fsr0h	equ	0xFEA
  5112                           fsr0l	equ	0xFE9
  5113                           wreg	equ	0xFE8
  5114                           postdec1	equ	0xFE5
  5115                           fsr1l	equ	0xFE1
  5116                           indf2	equ	0xFDF
  5117                           postinc2	equ	0xFDE
  5118                           postdec2	equ	0xFDD
  5119                           fsr2h	equ	0xFDA
  5120                           fsr2l	equ	0xFD9
  5121                           status	equ	0xFD8
  5122                           
  5123 ;; *************** function _InterruptHandlerHigh *****************
  5124 ;; Defined at:
  5125 ;;		line 52 in file "../../picuno/picuno.c"
  5126 ;; Parameters:    Size  Location     Type
  5127 ;;		None
  5128 ;; Auto vars:     Size  Location     Type
  5129 ;;  dd              2   14[COMRAM] unsigned int 
  5130 ;;  i               1   16[COMRAM] unsigned char 
  5131 ;; Return value:  Size  Location     Type
  5132 ;;		None               void
  5133 ;; Registers used:
  5134 ;;		wreg, fsr2l, fsr2h, status,2, status,0, prodl, prodh, cstack
  5135 ;; Tracked objects:
  5136 ;;		On entry : 0/0
  5137 ;;		On exit  : 0/0
  5138 ;;		Unchanged: 0/0
  5139 ;; Data sizes:     COMRAM   BANK0   BANK1   BANK2   BANK3   BANK4   BANK5
  5140 ;;      Params:         0       0       0       0       0       0       0
  5141 ;;      Locals:         3       0       0       0       0       0       0
  5142 ;;      Temps:         14       0       0       0       0       0       0
  5143 ;;      Totals:        17       0       0       0       0       0       0
  5144 ;;Total ram usage:       17 bytes
  5145 ;; Hardware stack levels used:    1
  5146 ;; Hardware stack levels required when called:    2
  5147 ;; This function calls:
  5148 ;;		_INT0_ISR
  5149 ;;		_INT1_ISR
  5150 ;;		_INT2_ISR
  5151 ;; This function is called by:
  5152 ;;		Interrupt level 2
  5153 ;; This function uses a non-reentrant model
  5154 ;;
  5155                           
  5156                           	psect	intcode
  5157  000008                     __pintcode:
  5158                           	opt stack 0
  5159  000008                     _InterruptHandlerHigh:
  5160                           	opt stack 24
  5161                           
  5162                           ;incstack = 0
  5163  000008  CFFA F02D          	movff	pclath,??_InterruptHandlerHigh
  5164  00000C  CFFB F02E          	movff	pclatu,??_InterruptHandlerHigh+1
  5165  000010  CFE9 F02F          	movff	fsr0l,??_InterruptHandlerHigh+2
  5166  000014  CFEA F030          	movff	fsr0h,??_InterruptHandlerHigh+3
  5167  000018  CFE1 F031          	movff	fsr1l,??_InterruptHandlerHigh+4
  5168  00001C  CFE2 F032          	movff	fsr1h,??_InterruptHandlerHigh+5
  5169  000020  CFD9 F033          	movff	fsr2l,??_InterruptHandlerHigh+6
  5170  000024  CFDA F034          	movff	fsr2h,??_InterruptHandlerHigh+7
  5171  000028  CFF3 F035          	movff	prodl,??_InterruptHandlerHigh+8
  5172  00002C  CFF4 F036          	movff	prodh,??_InterruptHandlerHigh+9
  5173  000030  CFF6 F037          	movff	tblptrl,??_InterruptHandlerHigh+10
  5174  000034  CFF7 F038          	movff	tblptrh,??_InterruptHandlerHigh+11
  5175  000038  CFF8 F039          	movff	tblptru,??_InterruptHandlerHigh+12
  5176  00003C  CFF5 F03A          	movff	tablat,??_InterruptHandlerHigh+13
  5177                           
  5178                           ;picuno.c: 54: byte i;
  5179                           ;picuno.c: 55: unsigned int dd;
  5180                           ;picuno.c: 58: if(INTCONbits.INT0IE == 1 && INTCONbits.INT0IF == 1)
  5181  000040  B8F2               	btfsc	intcon,4,c	;volatile
  5182  000042  A2F2               	btfss	intcon,1,c	;volatile
  5183  000044  D003               	goto	i2l382
  5184                           
  5185                           ;picuno.c: 59: {
  5186                           ;picuno.c: 60: INT0_ISR();
  5187  000046  EC11  F00A         	call	_INT0_ISR	;wreg free
  5188                           
  5189                           ;picuno.c: 61: }
  5190  00004A  D00B               	goto	i2l5002
  5191  00004C                     i2l382:
  5192                           
  5193                           ;picuno.c: 62: else if(INTCON3bits.INT1IE == 1 && INTCON3bits.INT1IF == 1)
  5194  00004C  B6F0               	btfsc	intcon3,3,c	;volatile
  5195  00004E  A0F0               	btfss	intcon3,0,c	;volatile
  5196  000050  D003               	goto	i2l384
  5197                           
  5198                           ;picuno.c: 63: {
  5199                           ;picuno.c: 64: INT1_ISR();
  5200  000052  EC0D  F00A         	call	_INT1_ISR	;wreg free
  5201                           
  5202                           ;picuno.c: 65: }
  5203  000056  D005               	goto	i2l5002
  5204  000058                     i2l384:
  5205                           
  5206                           ;picuno.c: 66: else if(INTCON3bits.INT2IE == 1 && INTCON3bits.INT2IF == 1)
  5207  000058  B8F0               	btfsc	intcon3,4,c	;volatile
  5208  00005A  A2F0               	btfss	intcon3,1,c	;volatile
  5209  00005C  D002               	goto	i2l5002
  5210                           
  5211                           ;picuno.c: 67: {
  5212                           ;picuno.c: 68: INT2_ISR();
  5213  00005E  EC09  F00A         	call	_INT2_ISR	;wreg free
  5214  000062                     i2l5002:
  5215                           
  5216                           ;picuno.c: 69: }
  5217                           ;picuno.c: 72: if (INTCONbits.TMR0IF)
  5218  000062  A4F2               	btfss	intcon,2,c	;volatile
  5219  000064  D069               	goto	i2l387
  5220                           
  5221                           ;picuno.c: 73: {
  5222                           ;picuno.c: 75: TMR0H = 0x63;
  5223  000066  0E63               	movlw	99
  5224  000068  6ED7               	movwf	4055,c	;volatile
  5225                           
  5226                           ;picuno.c: 76: TMR0L = 0xBF;
  5227  00006A  0EBF               	movlw	191
  5228  00006C  6ED6               	movwf	4054,c	;volatile
  5229                           
  5230                           ;picuno.c: 80: INTCONbits.TMR0IF = 0;
  5231  00006E  94F2               	bcf	intcon,2,c	;volatile
  5232                           
  5233                           ;picuno.c: 81: Flags.Bit.bit0 = 1;
  5234  000070  8001               	bsf	_Flags,0,c
  5235                           
  5236                           ;picuno.c: 82: sysTick++;
  5237  000072  0E01               	movlw	1
  5238  000074  0100               	movlb	0	; () banked
  5239  000076  27B6               	addwf	_sysTick& (0+255),f,b
  5240  000078  0E00               	movlw	0
  5241  00007A  0100               	movlb	0	; () banked
  5242  00007C  23B7               	addwfc	(_sysTick+1)& (0+255),f,b
  5243  00007E  0100               	movlb	0	; () banked
  5244  000080  23B8               	addwfc	(_sysTick+2)& (0+255),f,b
  5245  000082  0100               	movlb	0	; () banked
  5246  000084  23B9               	addwfc	(_sysTick+3)& (0+255),f,b
  5247                           
  5248                           ; BSR set to: 0
  5249                           ;picuno.c: 84: if(TmrRxd1)
  5250  000086  5003               	movf	_TmrRxd1,w,c
  5251  000088  B4D8               	btfsc	status,2,c
  5252  00008A  D005               	goto	i2l388
  5253                           
  5254                           ; BSR set to: 0
  5255                           ;picuno.c: 85: {
  5256                           ;picuno.c: 86: TmrRxd1--;
  5257  00008C  0603               	decf	_TmrRxd1,f,c
  5258                           
  5259                           ; BSR set to: 0
  5260                           ;picuno.c: 87: if(!TmrRxd1)
  5261  00008E  6603               	tstfsz	_TmrRxd1,c
  5262  000090  D002               	goto	i2l388
  5263                           
  5264                           ; BSR set to: 0
  5265                           ;picuno.c: 88: {
  5266                           ;picuno.c: 89: uart1_rx_ready=1;
  5267  000092  0E01               	movlw	1
  5268  000094  6E22               	movwf	_uart1_rx_ready,c
  5269  000096                     i2l388:
  5270                           
  5271                           ; BSR set to: 0
  5272                           ;picuno.c: 90: }
  5273                           ;picuno.c: 91: }
  5274                           ;picuno.c: 94: if(TmrRxd2)
  5275  000096  5004               	movf	_TmrRxd2,w,c
  5276  000098  B4D8               	btfsc	status,2,c
  5277  00009A  D006               	goto	i2l390
  5278                           
  5279                           ; BSR set to: 0
  5280                           ;picuno.c: 95: {
  5281                           ;picuno.c: 96: TmrRxd2--;
  5282  00009C  0604               	decf	_TmrRxd2,f,c
  5283                           
  5284                           ; BSR set to: 0
  5285                           ;picuno.c: 97: if(!TmrRxd2)
  5286  00009E  6604               	tstfsz	_TmrRxd2,c
  5287  0000A0  D003               	goto	i2l390
  5288                           
  5289                           ; BSR set to: 0
  5290                           ;picuno.c: 98: {
  5291                           ;picuno.c: 99: uart2_rx_ready=1;
  5292  0000A2  0E01               	movlw	1
  5293  0000A4  0100               	movlb	0	; () banked
  5294  0000A6  6FCE               	movwf	_uart2_rx_ready& (0+255),b
  5295  0000A8                     i2l390:
  5296                           
  5297                           ; BSR set to: 0
  5298                           ;picuno.c: 100: }
  5299                           ;picuno.c: 101: }
  5300                           ;picuno.c: 104: if(OneSec) OneSec--;
  5301  0000A8  504C               	movf	_OneSec,w,c
  5302  0000AA  A4D8               	btfss	status,2,c
  5303                           
  5304                           ; BSR set to: 0
  5305  0000AC  064C               	decf	_OneSec,f,c
  5306                           
  5307                           ; BSR set to: 0
  5308                           ;picuno.c: 105: if(OneSec==50) Flags.Bit.bit2 = ~Flags.Bit.bit2;
  5309                           
  5310                           ; BSR set to: 0
  5311  0000AE  504C               	movf	_OneSec,w,c
  5312  0000B0  0A32               	xorlw	50
  5313  0000B2  B4D8               	btfsc	status,2,c
  5314                           
  5315                           ; BSR set to: 0
  5316  0000B4  7401               	btg	_Flags,2,c
  5317                           
  5318                           ; BSR set to: 0
  5319                           ;picuno.c: 106: if(OneSec==0)
  5320  0000B6  664C               	tstfsz	_OneSec,c
  5321  0000B8  D006               	goto	i2l5038
  5322                           
  5323                           ; BSR set to: 0
  5324                           ;picuno.c: 107: {
  5325                           ;picuno.c: 108: OneSec=100;
  5326  0000BA  0E64               	movlw	100
  5327  0000BC  6E4C               	movwf	_OneSec,c
  5328                           
  5329                           ; BSR set to: 0
  5330                           ;picuno.c: 109: Flags.Bit.bit3 = ~Flags.Bit.bit3;
  5331  0000BE  7601               	btg	_Flags,3,c
  5332                           
  5333                           ;picuno.c: 110: if(TmrSec) TmrSec--;
  5334  0000C0  504D               	movf	_TmrSec,w,c
  5335  0000C2  A4D8               	btfss	status,2,c
  5336                           
  5337                           ; BSR set to: 0
  5338  0000C4  064D               	decf	_TmrSec,f,c
  5339  0000C6                     i2l5038:
  5340                           
  5341                           ; BSR set to: 0
  5342                           ;picuno.c: 111: }
  5343                           ;picuno.c: 113: if(HMSec) HMSec--;
  5344  0000C6  504B               	movf	_HMSec,w,c
  5345  0000C8  A4D8               	btfss	status,2,c
  5346                           
  5347                           ; BSR set to: 0
  5348  0000CA  064B               	decf	_HMSec,f,c
  5349                           
  5350                           ; BSR set to: 0
  5351                           ;picuno.c: 114: if(!HMSec){HMSec=10; Flags.Bit.bit1 = ~Flags.Bit.bit1;}
  5352                           
  5353                           ; BSR set to: 0
  5354  0000CC  664B               	tstfsz	_HMSec,c
  5355  0000CE  D003               	goto	i2l397
  5356                           
  5357                           ; BSR set to: 0
  5358  0000D0  0E0A               	movlw	10
  5359  0000D2  6E4B               	movwf	_HMSec,c
  5360                           
  5361                           ; BSR set to: 0
  5362  0000D4  7201               	btg	_Flags,1,c
  5363  0000D6                     i2l397:
  5364                           
  5365                           ; BSR set to: 0
  5366                           ;picuno.c: 116: if(TimerFlag)
  5367  0000D6  5002               	movf	_TimerFlag,w,c
  5368  0000D8  B4D8               	btfsc	status,2,c
  5369  0000DA  D02E               	goto	i2l387
  5370                           
  5371                           ; BSR set to: 0
  5372                           ;picuno.c: 117: {
  5373                           ;picuno.c: 118: TimerFlag = 0;
  5374  0000DC  0E00               	movlw	0
  5375  0000DE  6E02               	movwf	_TimerFlag,c
  5376                           
  5377                           ;picuno.c: 119: for(i=0;i<10;i++)
  5378  0000E0  0E00               	movlw	0
  5379  0000E2  6E3D               	movwf	InterruptHandlerHigh@i,c
  5380  0000E4  D026               	goto	L5
  5381  0000E6                     i2l5054:
  5382                           
  5383                           ; BSR set to: 0
  5384                           ;picuno.c: 120: {
  5385                           ;picuno.c: 121: dd=TimerArray[i];
  5386  0000E6  503D               	movf	InterruptHandlerHigh@i,w,c
  5387  0000E8  0D02               	mullw	2
  5388  0000EA  0100               	movlb	0	; () banked
  5389  0000EC  0EA2               	movlw	low _TimerArray
  5390  0000EE  24F3               	addwf	prodl,w,c
  5391  0000F0  6ED9               	movwf	fsr2l,c
  5392  0000F2  0100               	movlb	0	; () banked
  5393  0000F4  0E00               	movlw	high _TimerArray
  5394  0000F6  20F4               	addwfc	prodh,w,c
  5395  0000F8  6EDA               	movwf	fsr2h,c
  5396  0000FA  CFDE F03B          	movff	postinc2,InterruptHandlerHigh@dd
  5397  0000FE  CFDD F03C          	movff	postdec2,InterruptHandlerHigh@dd+1
  5398                           
  5399                           ; BSR set to: 0
  5400                           ;picuno.c: 122: if(dd) { dd--; TimerFlag=1; }
  5401  000102  503C               	movf	InterruptHandlerHigh@dd+1,w,c
  5402  000104  103B               	iorwf	InterruptHandlerHigh@dd,w,c
  5403  000106  B4D8               	btfsc	status,2,c
  5404  000108  D005               	goto	i2l5062
  5405                           
  5406                           ; BSR set to: 0
  5407  00010A  063B               	decf	InterruptHandlerHigh@dd,f,c
  5408  00010C  A0D8               	btfss	status,0,c
  5409  00010E  063C               	decf	InterruptHandlerHigh@dd+1,f,c
  5410                           
  5411                           ; BSR set to: 0
  5412  000110  0E01               	movlw	1
  5413  000112  6E02               	movwf	_TimerFlag,c
  5414  000114                     i2l5062:
  5415                           
  5416                           ; BSR set to: 0
  5417                           ;picuno.c: 123: TimerArray[i]=dd;
  5418  000114  503D               	movf	InterruptHandlerHigh@i,w,c
  5419  000116  0D02               	mullw	2
  5420  000118  0100               	movlb	0	; () banked
  5421  00011A  0EA2               	movlw	low _TimerArray
  5422  00011C  24F3               	addwf	prodl,w,c
  5423  00011E  6ED9               	movwf	fsr2l,c
  5424  000120  0100               	movlb	0	; () banked
  5425  000122  0E00               	movlw	high _TimerArray
  5426  000124  20F4               	addwfc	prodh,w,c
  5427  000126  6EDA               	movwf	fsr2h,c
  5428  000128  C03B  FFDE         	movff	InterruptHandlerHigh@dd,postinc2
  5429  00012C  C03C  FFDD         	movff	InterruptHandlerHigh@dd+1,postdec2
  5430                           
  5431                           ; BSR set to: 0
  5432  000130  2A3D               	incf	InterruptHandlerHigh@i,f,c
  5433  000132                     L5:
  5434                           
  5435                           ; BSR set to: 0
  5436  000132  0E09               	movlw	9
  5437  000134  643D               	cpfsgt	InterruptHandlerHigh@i,c
  5438  000136  D7D7               	goto	i2l5054
  5439  000138                     i2l387:
  5440                           
  5441                           ;picuno.c: 124: }
  5442                           ;picuno.c: 125: }
  5443                           ;picuno.c: 126: }
  5444                           ;picuno.c: 128: if(RCIF){
  5445  000138  AA9E               	btfss	3998,5,c	;volatile
  5446  00013A  D029               	goto	i2l5088
  5447                           
  5448                           ;picuno.c: 129: uart1_rx_char = RCREG1;
  5449  00013C  CFAE F01F          	movff	4014,_uart1_rx_char	;volatile
  5450                           
  5451                           ;picuno.c: 131: if(uart1_rx_cnt < 95)
  5452  000140  0E5F               	movlw	95
  5453  000142  5C20               	subwf	_uart1_rx_cnt,w,c
  5454  000144  B0D8               	btfsc	status,0,c
  5455  000146  D00D               	goto	i2l5076
  5456                           
  5457                           ;picuno.c: 132: {
  5458                           ;picuno.c: 133: uart1_rxbuf[uart1_rx_cnt++] = uart1_rx_char;
  5459  000148  5020               	movf	_uart1_rx_cnt,w,c
  5460  00014A  0D01               	mullw	1
  5461  00014C  0101               	movlb	1	; () banked
  5462  00014E  0E00               	movlw	low _uart1_rxbuf
  5463  000150  24F3               	addwf	prodl,w,c
  5464  000152  6ED9               	movwf	fsr2l,c
  5465  000154  0101               	movlb	1	; () banked
  5466  000156  0E01               	movlw	high _uart1_rxbuf
  5467  000158  20F4               	addwfc	prodh,w,c
  5468  00015A  6EDA               	movwf	fsr2h,c
  5469  00015C  C01F  FFDF         	movff	_uart1_rx_char,indf2
  5470                           
  5471                           ; BSR set to: 1
  5472  000160  2A20               	incf	_uart1_rx_cnt,f,c
  5473  000162                     i2l5076:
  5474                           
  5475                           ;picuno.c: 134: }
  5476                           ;picuno.c: 135: uart1_rxbuf[uart1_rx_cnt]=0x00;
  5477  000162  5020               	movf	_uart1_rx_cnt,w,c
  5478  000164  0D01               	mullw	1
  5479  000166  0101               	movlb	1	; () banked
  5480  000168  0E00               	movlw	low _uart1_rxbuf
  5481  00016A  24F3               	addwf	prodl,w,c
  5482  00016C  6ED9               	movwf	fsr2l,c
  5483  00016E  0101               	movlb	1	; () banked
  5484  000170  0E01               	movlw	high _uart1_rxbuf
  5485  000172  20F4               	addwfc	prodh,w,c
  5486  000174  6EDA               	movwf	fsr2h,c
  5487  000176  0E00               	movlw	0
  5488  000178  6EDF               	movwf	indf2,c
  5489                           
  5490                           ; BSR set to: 1
  5491                           ;picuno.c: 136: if(uart1_rx_char==0x0D) uart1_cr_cnt++;
  5492  00017A  501F               	movf	_uart1_rx_char,w,c
  5493  00017C  0A0D               	xorlw	13
  5494  00017E  B4D8               	btfsc	status,2,c
  5495                           
  5496                           ; BSR set to: 1
  5497  000180  2A1D               	incf	_uart1_cr_cnt,f,c
  5498                           
  5499                           ; BSR set to: 1
  5500                           ;picuno.c: 137: if(uart1_rx_char==0x0A) uart1_lf_cnt++;
  5501                           
  5502                           ; BSR set to: 1
  5503  000182  501F               	movf	_uart1_rx_char,w,c
  5504  000184  0A0A               	xorlw	10
  5505  000186  B4D8               	btfsc	status,2,c
  5506                           
  5507                           ; BSR set to: 1
  5508  000188  2A1E               	incf	_uart1_lf_cnt,f,c
  5509                           
  5510                           ; BSR set to: 1
  5511                           ;picuno.c: 138: TmrRxd1=10;
  5512                           
  5513                           ; BSR set to: 1
  5514  00018A  0E0A               	movlw	10
  5515  00018C  6E03               	movwf	_TmrRxd1,c
  5516  00018E                     i2l5088:
  5517                           
  5518                           ;picuno.c: 139: }
  5519                           ;picuno.c: 141: if(TXIE && TXIF)
  5520  00018E  B89D               	btfsc	3997,4,c	;volatile
  5521  000190  A89E               	btfss	3998,4,c	;volatile
  5522  000192  D019               	goto	i2l5108
  5523                           
  5524                           ;picuno.c: 142: {
  5525                           ;picuno.c: 143: TXREG = uart1_txbuf[uart1_tx_pos++];
  5526  000194  5024               	movf	_uart1_tx_pos,w,c
  5527  000196  0D01               	mullw	1
  5528  000198  0100               	movlb	0	; () banked
  5529  00019A  0E60               	movlw	low _uart1_txbuf
  5530  00019C  24F3               	addwf	prodl,w,c
  5531  00019E  6ED9               	movwf	fsr2l,c
  5532  0001A0  0100               	movlb	0	; () banked
  5533  0001A2  0E00               	movlw	high _uart1_txbuf
  5534  0001A4  20F4               	addwfc	prodh,w,c
  5535  0001A6  6EDA               	movwf	fsr2h,c
  5536  0001A8  50DF               	movf	indf2,w,c
  5537  0001AA  6EAD               	movwf	4013,c	;volatile
  5538                           
  5539                           ; BSR set to: 0
  5540  0001AC  2A24               	incf	_uart1_tx_pos,f,c
  5541                           
  5542                           ; BSR set to: 0
  5543                           ;picuno.c: 144: if(uart1_tx_pos == 32) uart1_tx_pos = 0;
  5544  0001AE  5024               	movf	_uart1_tx_pos,w,c
  5545  0001B0  0A20               	xorlw	32
  5546  0001B2  A4D8               	btfss	status,2,c
  5547  0001B4  D002               	goto	i2l5100
  5548                           
  5549                           ; BSR set to: 0
  5550  0001B6  0E00               	movlw	0
  5551  0001B8  6E24               	movwf	_uart1_tx_pos,c
  5552  0001BA                     i2l5100:
  5553                           
  5554                           ; BSR set to: 0
  5555                           ;picuno.c: 145: uart1_tx_cnt--;
  5556  0001BA  0623               	decf	_uart1_tx_cnt,f,c
  5557                           
  5558                           ; BSR set to: 0
  5559                           ;picuno.c: 146: if(!uart1_tx_cnt)
  5560  0001BC  6623               	tstfsz	_uart1_tx_cnt,c
  5561  0001BE  D003               	goto	i2l5108
  5562                           
  5563                           ; BSR set to: 0
  5564                           ;picuno.c: 147: {
  5565                           ;picuno.c: 148: uart1_tx_pos = 0;
  5566  0001C0  0E00               	movlw	0
  5567  0001C2  6E24               	movwf	_uart1_tx_pos,c
  5568                           
  5569                           ; BSR set to: 0
  5570                           ;picuno.c: 149: TXIE = 0;
  5571  0001C4  989D               	bcf	3997,4,c	;volatile
  5572  0001C6                     i2l5108:
  5573                           
  5574                           ;picuno.c: 150: }
  5575                           ;picuno.c: 151: }
  5576                           ;picuno.c: 155: if(RC2IF){
  5577  0001C6  AAA4               	btfss	4004,5,c	;volatile
  5578  0001C8  D02F               	goto	i2l5132
  5579                           
  5580                           ;picuno.c: 156: if(RCSTA2bits.OERR2){
  5581  0001CA  A271               	btfss	3953,1,c	;volatile
  5582  0001CC  D002               	goto	i2l410
  5583                           
  5584                           ;picuno.c: 157: RCSTA2bits.CREN2 = 0;
  5585  0001CE  9871               	bcf	3953,4,c	;volatile
  5586                           
  5587                           ;picuno.c: 158: RCSTA2bits.CREN2 = 1;
  5588  0001D0  8871               	bsf	3953,4,c	;volatile
  5589  0001D2                     i2l410:
  5590                           
  5591                           ;picuno.c: 159: }
  5592                           ;picuno.c: 160: uart2_rx_char = RCREG2;
  5593  0001D2  CF74 F026          	movff	3956,_uart2_rx_char	;volatile
  5594                           
  5595                           ;picuno.c: 162: if(uart2_rx_cnt < 95)
  5596  0001D6  0E5F               	movlw	95
  5597  0001D8  5C27               	subwf	_uart2_rx_cnt,w,c
  5598  0001DA  B0D8               	btfsc	status,0,c
  5599  0001DC  D00D               	goto	i2l5120
  5600                           
  5601                           ;picuno.c: 163: {
  5602                           ;picuno.c: 164: uart2_rxbuf[uart2_rx_cnt++] = uart2_rx_char;
  5603  0001DE  5027               	movf	_uart2_rx_cnt,w,c
  5604  0001E0  0D01               	mullw	1
  5605  0001E2  0101               	movlb	1	; () banked
  5606  0001E4  0E60               	movlw	low _uart2_rxbuf
  5607  0001E6  24F3               	addwf	prodl,w,c
  5608  0001E8  6ED9               	movwf	fsr2l,c
  5609  0001EA  0101               	movlb	1	; () banked
  5610  0001EC  0E01               	movlw	high _uart2_rxbuf
  5611  0001EE  20F4               	addwfc	prodh,w,c
  5612  0001F0  6EDA               	movwf	fsr2h,c
  5613  0001F2  C026  FFDF         	movff	_uart2_rx_char,indf2
  5614                           
  5615                           ; BSR set to: 1
  5616  0001F6  2A27               	incf	_uart2_rx_cnt,f,c
  5617  0001F8                     i2l5120:
  5618                           
  5619                           ;picuno.c: 165: }
  5620                           ;picuno.c: 166: uart2_rxbuf[uart2_rx_cnt]=0x00;
  5621  0001F8  5027               	movf	_uart2_rx_cnt,w,c
  5622  0001FA  0D01               	mullw	1
  5623  0001FC  0101               	movlb	1	; () banked
  5624  0001FE  0E60               	movlw	low _uart2_rxbuf
  5625  000200  24F3               	addwf	prodl,w,c
  5626  000202  6ED9               	movwf	fsr2l,c
  5627  000204  0101               	movlb	1	; () banked
  5628  000206  0E01               	movlw	high _uart2_rxbuf
  5629  000208  20F4               	addwfc	prodh,w,c
  5630  00020A  6EDA               	movwf	fsr2h,c
  5631  00020C  0E00               	movlw	0
  5632  00020E  6EDF               	movwf	indf2,c
  5633                           
  5634                           ; BSR set to: 1
  5635                           ;picuno.c: 167: if(uart2_rx_char==0x0D) uart2_cr_cnt++;
  5636  000210  5026               	movf	_uart2_rx_char,w,c
  5637  000212  0A0D               	xorlw	13
  5638  000214  B4D8               	btfsc	status,2,c
  5639                           
  5640                           ; BSR set to: 1
  5641  000216  2A25               	incf	_uart2_cr_cnt,f,c
  5642                           
  5643                           ; BSR set to: 1
  5644                           ;picuno.c: 168: if(uart2_rx_char==0x0A) uart2_lf_cnt++;
  5645                           
  5646                           ; BSR set to: 1
  5647  000218  5026               	movf	_uart2_rx_char,w,c
  5648  00021A  0A0A               	xorlw	10
  5649  00021C  A4D8               	btfss	status,2,c
  5650  00021E  D002               	goto	i2l5130
  5651                           
  5652                           ; BSR set to: 1
  5653  000220  0100               	movlb	0	; () banked
  5654  000222  2BCD               	incf	_uart2_lf_cnt& (0+255),f,b
  5655  000224                     i2l5130:
  5656                           
  5657                           ;picuno.c: 169: TmrRxd2=10;
  5658  000224  0E0A               	movlw	10
  5659  000226  6E04               	movwf	_TmrRxd2,c
  5660  000228                     i2l5132:
  5661                           
  5662                           ;picuno.c: 170: }
  5663                           ;picuno.c: 172: if(TX2IE && TX2IF)
  5664  000228  B8A3               	btfsc	4003,4,c	;volatile
  5665  00022A  A8A4               	btfss	4004,4,c	;volatile
  5666  00022C  D019               	goto	i2l417
  5667                           
  5668                           ;picuno.c: 173: {
  5669                           ;picuno.c: 174: TXREG2 = uart2_txbuf[uart2_tx_pos++];
  5670  00022E  502A               	movf	_uart2_tx_pos,w,c
  5671  000230  0D01               	mullw	1
  5672  000232  0100               	movlb	0	; () banked
  5673  000234  0E81               	movlw	low _uart2_txbuf
  5674  000236  24F3               	addwf	prodl,w,c
  5675  000238  6ED9               	movwf	fsr2l,c
  5676  00023A  0100               	movlb	0	; () banked
  5677  00023C  0E00               	movlw	high _uart2_txbuf
  5678  00023E  20F4               	addwfc	prodh,w,c
  5679  000240  6EDA               	movwf	fsr2h,c
  5680  000242  50DF               	movf	indf2,w,c
  5681  000244  6E73               	movwf	3955,c	;volatile
  5682                           
  5683                           ; BSR set to: 0
  5684  000246  2A2A               	incf	_uart2_tx_pos,f,c
  5685                           
  5686                           ; BSR set to: 0
  5687                           ;picuno.c: 175: if(uart2_tx_pos == 32) uart2_tx_pos = 0;
  5688  000248  502A               	movf	_uart2_tx_pos,w,c
  5689  00024A  0A20               	xorlw	32
  5690  00024C  A4D8               	btfss	status,2,c
  5691  00024E  D002               	goto	i2l5144
  5692                           
  5693                           ; BSR set to: 0
  5694  000250  0E00               	movlw	0
  5695  000252  6E2A               	movwf	_uart2_tx_pos,c
  5696  000254                     i2l5144:
  5697                           
  5698                           ; BSR set to: 0
  5699                           ;picuno.c: 176: uart2_tx_cnt--;
  5700  000254  0629               	decf	_uart2_tx_cnt,f,c
  5701                           
  5702                           ; BSR set to: 0
  5703                           ;picuno.c: 177: if(!uart2_tx_cnt)
  5704  000256  6629               	tstfsz	_uart2_tx_cnt,c
  5705  000258  D003               	goto	i2l417
  5706                           
  5707                           ; BSR set to: 0
  5708                           ;picuno.c: 178: {
  5709                           ;picuno.c: 179: uart2_tx_pos = 0;
  5710  00025A  0E00               	movlw	0
  5711  00025C  6E2A               	movwf	_uart2_tx_pos,c
  5712                           
  5713                           ; BSR set to: 0
  5714                           ;picuno.c: 180: TX2IE = 0;
  5715  00025E  98A3               	bcf	4003,4,c	;volatile
  5716  000260                     i2l417:
  5717  000260  C03A  FFF5         	movff	??_InterruptHandlerHigh+13,tablat
  5718  000264  C039  FFF8         	movff	??_InterruptHandlerHigh+12,tblptru
  5719  000268  C038  FFF7         	movff	??_InterruptHandlerHigh+11,tblptrh
  5720  00026C  C037  FFF6         	movff	??_InterruptHandlerHigh+10,tblptrl
  5721  000270  C036  FFF4         	movff	??_InterruptHandlerHigh+9,prodh
  5722  000274  C035  FFF3         	movff	??_InterruptHandlerHigh+8,prodl
  5723  000278  C034  FFDA         	movff	??_InterruptHandlerHigh+7,fsr2h
  5724  00027C  C033  FFD9         	movff	??_InterruptHandlerHigh+6,fsr2l
  5725  000280  C032  FFE2         	movff	??_InterruptHandlerHigh+5,fsr1h
  5726  000284  C031  FFE1         	movff	??_InterruptHandlerHigh+4,fsr1l
  5727  000288  C030  FFEA         	movff	??_InterruptHandlerHigh+3,fsr0h
  5728  00028C  C02F  FFE9         	movff	??_InterruptHandlerHigh+2,fsr0l
  5729  000290  C02E  FFFB         	movff	??_InterruptHandlerHigh+1,pclatu
  5730  000294  C02D  FFFA         	movff	??_InterruptHandlerHigh,pclath
  5731  000298  0011               	retfie		f
  5732  00029A                     __end_of_InterruptHandlerHigh:
  5733                           	opt stack 0
  5734                           pclatu	equ	0xFFB
  5735                           pclath	equ	0xFFA
  5736                           tblptru	equ	0xFF8
  5737                           tblptrh	equ	0xFF7
  5738                           tblptrl	equ	0xFF6
  5739                           tablat	equ	0xFF5
  5740                           prodh	equ	0xFF4
  5741                           prodl	equ	0xFF3
  5742                           intcon	equ	0xFF2
  5743                           intcon2	equ	0xFF1
  5744                           intcon3	equ	0xFF0
  5745                           indf0	equ	0xFEF
  5746                           postinc0	equ	0xFEE
  5747                           fsr0h	equ	0xFEA
  5748                           fsr0l	equ	0xFE9
  5749                           wreg	equ	0xFE8
  5750                           postdec1	equ	0xFE5
  5751                           fsr1h	equ	0xFE2
  5752                           fsr1l	equ	0xFE1
  5753                           indf2	equ	0xFDF
  5754                           postinc2	equ	0xFDE
  5755                           postdec2	equ	0xFDD
  5756                           fsr2h	equ	0xFDA
  5757                           fsr2l	equ	0xFD9
  5758                           status	equ	0xFD8
  5759                           
  5760 ;; *************** function _INT2_ISR *****************
  5761 ;; Defined at:
  5762 ;;		line 3195 in file "../../picuno/picuno.c"
  5763 ;; Parameters:    Size  Location     Type
  5764 ;;		None
  5765 ;; Auto vars:     Size  Location     Type
  5766 ;;		None
  5767 ;; Return value:  Size  Location     Type
  5768 ;;		None               void
  5769 ;; Registers used:
  5770 ;;		wreg, status,2, status,0, cstack
  5771 ;; Tracked objects:
  5772 ;;		On entry : 0/0
  5773 ;;		On exit  : 0/0
  5774 ;;		Unchanged: 0/0
  5775 ;; Data sizes:     COMRAM   BANK0   BANK1   BANK2   BANK3   BANK4   BANK5
  5776 ;;      Params:         0       0       0       0       0       0       0
  5777 ;;      Locals:         0       0       0       0       0       0       0
  5778 ;;      Temps:          0       0       0       0       0       0       0
  5779 ;;      Totals:         0       0       0       0       0       0       0
  5780 ;;Total ram usage:        0 bytes
  5781 ;; Hardware stack levels used:    1
  5782 ;; Hardware stack levels required when called:    1
  5783 ;; This function calls:
  5784 ;;		_INT2_CallBack
  5785 ;; This function is called by:
  5786 ;;		_InterruptHandlerHigh
  5787 ;; This function uses a non-reentrant model
  5788 ;;
  5789                           
  5790                           	psect	text22
  5791  001412                     __ptext22:
  5792                           	opt stack 0
  5793  001412                     _INT2_ISR:
  5794                           	opt stack 24
  5795                           
  5796                           ;picuno.c: 3197: (INTCON3bits.INT2IF = 0);
  5797                           
  5798                           ;incstack = 0
  5799  001412  92F0               	bcf	intcon3,1,c	;volatile
  5800                           
  5801                           ;picuno.c: 3200: INT2_CallBack();
  5802  001414  EC1A  F00A         	call	_INT2_CallBack	;wreg free
  5803  001418  0012               	return	
  5804  00141A                     __end_of_INT2_ISR:
  5805                           	opt stack 0
  5806                           pclatu	equ	0xFFB
  5807                           pclath	equ	0xFFA
  5808                           tblptru	equ	0xFF8
  5809                           tblptrh	equ	0xFF7
  5810                           tblptrl	equ	0xFF6
  5811                           tablat	equ	0xFF5
  5812                           prodh	equ	0xFF4
  5813                           prodl	equ	0xFF3
  5814                           intcon	equ	0xFF2
  5815                           intcon2	equ	0xFF1
  5816                           intcon3	equ	0xFF0
  5817                           indf0	equ	0xFEF
  5818                           postinc0	equ	0xFEE
  5819                           fsr0h	equ	0xFEA
  5820                           fsr0l	equ	0xFE9
  5821                           wreg	equ	0xFE8
  5822                           postdec1	equ	0xFE5
  5823                           fsr1h	equ	0xFE2
  5824                           fsr1l	equ	0xFE1
  5825                           indf2	equ	0xFDF
  5826                           postinc2	equ	0xFDE
  5827                           postdec2	equ	0xFDD
  5828                           fsr2h	equ	0xFDA
  5829                           fsr2l	equ	0xFD9
  5830                           status	equ	0xFD8
  5831                           
  5832 ;; *************** function _INT2_CallBack *****************
  5833 ;; Defined at:
  5834 ;;		line 3204 in file "../../picuno/picuno.c"
  5835 ;; Parameters:    Size  Location     Type
  5836 ;;		None
  5837 ;; Auto vars:     Size  Location     Type
  5838 ;;		None
  5839 ;; Return value:  Size  Location     Type
  5840 ;;		None               void
  5841 ;; Registers used:
  5842 ;;		wreg, status,2, status,0
  5843 ;; Tracked objects:
  5844 ;;		On entry : 0/0
  5845 ;;		On exit  : 0/0
  5846 ;;		Unchanged: 0/0
  5847 ;; Data sizes:     COMRAM   BANK0   BANK1   BANK2   BANK3   BANK4   BANK5
  5848 ;;      Params:         0       0       0       0       0       0       0
  5849 ;;      Locals:         0       0       0       0       0       0       0
  5850 ;;      Temps:          0       0       0       0       0       0       0
  5851 ;;      Totals:         0       0       0       0       0       0       0
  5852 ;;Total ram usage:        0 bytes
  5853 ;; Hardware stack levels used:    1
  5854 ;; This function calls:
  5855 ;;		Nothing
  5856 ;; This function is called by:
  5857 ;;		_INT2_ISR
  5858 ;; This function uses a non-reentrant model
  5859 ;;
  5860                           
  5861                           	psect	text23
  5862  001434                     __ptext23:
  5863                           	opt stack 0
  5864  001434                     _INT2_CallBack:
  5865                           	opt stack 24
  5866                           
  5867                           ;incstack = 0
  5868  001434  0012               	return	
  5869  001436                     __end_of_INT2_CallBack:
  5870                           	opt stack 0
  5871                           pclatu	equ	0xFFB
  5872                           pclath	equ	0xFFA
  5873                           tblptru	equ	0xFF8
  5874                           tblptrh	equ	0xFF7
  5875                           tblptrl	equ	0xFF6
  5876                           tablat	equ	0xFF5
  5877                           prodh	equ	0xFF4
  5878                           prodl	equ	0xFF3
  5879                           intcon	equ	0xFF2
  5880                           intcon2	equ	0xFF1
  5881                           intcon3	equ	0xFF0
  5882                           indf0	equ	0xFEF
  5883                           postinc0	equ	0xFEE
  5884                           fsr0h	equ	0xFEA
  5885                           fsr0l	equ	0xFE9
  5886                           wreg	equ	0xFE8
  5887                           postdec1	equ	0xFE5
  5888                           fsr1h	equ	0xFE2
  5889                           fsr1l	equ	0xFE1
  5890                           indf2	equ	0xFDF
  5891                           postinc2	equ	0xFDE
  5892                           postdec2	equ	0xFDD
  5893                           fsr2h	equ	0xFDA
  5894                           fsr2l	equ	0xFD9
  5895                           status	equ	0xFD8
  5896                           
  5897 ;; *************** function _INT1_ISR *****************
  5898 ;; Defined at:
  5899 ;;		line 3174 in file "../../picuno/picuno.c"
  5900 ;; Parameters:    Size  Location     Type
  5901 ;;		None
  5902 ;; Auto vars:     Size  Location     Type
  5903 ;;		None
  5904 ;; Return value:  Size  Location     Type
  5905 ;;		None               void
  5906 ;; Registers used:
  5907 ;;		wreg, status,2, status,0, cstack
  5908 ;; Tracked objects:
  5909 ;;		On entry : 0/0
  5910 ;;		On exit  : 0/0
  5911 ;;		Unchanged: 0/0
  5912 ;; Data sizes:     COMRAM   BANK0   BANK1   BANK2   BANK3   BANK4   BANK5
  5913 ;;      Params:         0       0       0       0       0       0       0
  5914 ;;      Locals:         0       0       0       0       0       0       0
  5915 ;;      Temps:          0       0       0       0       0       0       0
  5916 ;;      Totals:         0       0       0       0       0       0       0
  5917 ;;Total ram usage:        0 bytes
  5918 ;; Hardware stack levels used:    1
  5919 ;; Hardware stack levels required when called:    1
  5920 ;; This function calls:
  5921 ;;		_INT1_CallBack
  5922 ;; This function is called by:
  5923 ;;		_InterruptHandlerHigh
  5924 ;; This function uses a non-reentrant model
  5925 ;;
  5926                           
  5927                           	psect	text24
  5928  00141A                     __ptext24:
  5929                           	opt stack 0
  5930  00141A                     _INT1_ISR:
  5931                           	opt stack 24
  5932                           
  5933                           ;picuno.c: 3176: (INTCON3bits.INT1IF = 0);
  5934                           
  5935                           ;incstack = 0
  5936  00141A  90F0               	bcf	intcon3,0,c	;volatile
  5937                           
  5938                           ;picuno.c: 3179: INT1_CallBack();
  5939  00141C  EC1B  F00A         	call	_INT1_CallBack	;wreg free
  5940  001420  0012               	return	
  5941  001422                     __end_of_INT1_ISR:
  5942                           	opt stack 0
  5943                           pclatu	equ	0xFFB
  5944                           pclath	equ	0xFFA
  5945                           tblptru	equ	0xFF8
  5946                           tblptrh	equ	0xFF7
  5947                           tblptrl	equ	0xFF6
  5948                           tablat	equ	0xFF5
  5949                           prodh	equ	0xFF4
  5950                           prodl	equ	0xFF3
  5951                           intcon	equ	0xFF2
  5952                           intcon2	equ	0xFF1
  5953                           intcon3	equ	0xFF0
  5954                           indf0	equ	0xFEF
  5955                           postinc0	equ	0xFEE
  5956                           fsr0h	equ	0xFEA
  5957                           fsr0l	equ	0xFE9
  5958                           wreg	equ	0xFE8
  5959                           postdec1	equ	0xFE5
  5960                           fsr1h	equ	0xFE2
  5961                           fsr1l	equ	0xFE1
  5962                           indf2	equ	0xFDF
  5963                           postinc2	equ	0xFDE
  5964                           postdec2	equ	0xFDD
  5965                           fsr2h	equ	0xFDA
  5966                           fsr2l	equ	0xFD9
  5967                           status	equ	0xFD8
  5968                           
  5969 ;; *************** function _INT1_CallBack *****************
  5970 ;; Defined at:
  5971 ;;		line 3182 in file "../../picuno/picuno.c"
  5972 ;; Parameters:    Size  Location     Type
  5973 ;;		None
  5974 ;; Auto vars:     Size  Location     Type
  5975 ;;		None
  5976 ;; Return value:  Size  Location     Type
  5977 ;;		None               void
  5978 ;; Registers used:
  5979 ;;		wreg, status,2, status,0
  5980 ;; Tracked objects:
  5981 ;;		On entry : 0/0
  5982 ;;		On exit  : 0/0
  5983 ;;		Unchanged: 0/0
  5984 ;; Data sizes:     COMRAM   BANK0   BANK1   BANK2   BANK3   BANK4   BANK5
  5985 ;;      Params:         0       0       0       0       0       0       0
  5986 ;;      Locals:         0       0       0       0       0       0       0
  5987 ;;      Temps:          0       0       0       0       0       0       0
  5988 ;;      Totals:         0       0       0       0       0       0       0
  5989 ;;Total ram usage:        0 bytes
  5990 ;; Hardware stack levels used:    1
  5991 ;; This function calls:
  5992 ;;		Nothing
  5993 ;; This function is called by:
  5994 ;;		_INT1_ISR
  5995 ;; This function uses a non-reentrant model
  5996 ;;
  5997                           
  5998                           	psect	text25
  5999  001436                     __ptext25:
  6000                           	opt stack 0
  6001  001436                     _INT1_CallBack:
  6002                           	opt stack 24
  6003                           
  6004                           ;incstack = 0
  6005  001436  0012               	return	
  6006  001438                     __end_of_INT1_CallBack:
  6007                           	opt stack 0
  6008                           pclatu	equ	0xFFB
  6009                           pclath	equ	0xFFA
  6010                           tblptru	equ	0xFF8
  6011                           tblptrh	equ	0xFF7
  6012                           tblptrl	equ	0xFF6
  6013                           tablat	equ	0xFF5
  6014                           prodh	equ	0xFF4
  6015                           prodl	equ	0xFF3
  6016                           intcon	equ	0xFF2
  6017                           intcon2	equ	0xFF1
  6018                           intcon3	equ	0xFF0
  6019                           indf0	equ	0xFEF
  6020                           postinc0	equ	0xFEE
  6021                           fsr0h	equ	0xFEA
  6022                           fsr0l	equ	0xFE9
  6023                           wreg	equ	0xFE8
  6024                           postdec1	equ	0xFE5
  6025                           fsr1h	equ	0xFE2
  6026                           fsr1l	equ	0xFE1
  6027                           indf2	equ	0xFDF
  6028                           postinc2	equ	0xFDE
  6029                           postdec2	equ	0xFDD
  6030                           fsr2h	equ	0xFDA
  6031                           fsr2l	equ	0xFD9
  6032                           status	equ	0xFD8
  6033                           
  6034 ;; *************** function _INT0_ISR *****************
  6035 ;; Defined at:
  6036 ;;		line 3153 in file "../../picuno/picuno.c"
  6037 ;; Parameters:    Size  Location     Type
  6038 ;;		None
  6039 ;; Auto vars:     Size  Location     Type
  6040 ;;		None
  6041 ;; Return value:  Size  Location     Type
  6042 ;;		None               void
  6043 ;; Registers used:
  6044 ;;		wreg, status,2, status,0, cstack
  6045 ;; Tracked objects:
  6046 ;;		On entry : 0/0
  6047 ;;		On exit  : 0/0
  6048 ;;		Unchanged: 0/0
  6049 ;; Data sizes:     COMRAM   BANK0   BANK1   BANK2   BANK3   BANK4   BANK5
  6050 ;;      Params:         0       0       0       0       0       0       0
  6051 ;;      Locals:         0       0       0       0       0       0       0
  6052 ;;      Temps:          0       0       0       0       0       0       0
  6053 ;;      Totals:         0       0       0       0       0       0       0
  6054 ;;Total ram usage:        0 bytes
  6055 ;; Hardware stack levels used:    1
  6056 ;; Hardware stack levels required when called:    1
  6057 ;; This function calls:
  6058 ;;		_INT0_CallBack
  6059 ;; This function is called by:
  6060 ;;		_InterruptHandlerHigh
  6061 ;; This function uses a non-reentrant model
  6062 ;;
  6063                           
  6064                           	psect	text26
  6065  001422                     __ptext26:
  6066                           	opt stack 0
  6067  001422                     _INT0_ISR:
  6068                           	opt stack 24
  6069                           
  6070                           ;picuno.c: 3155: (INTCONbits.INT0IF = 0);
  6071                           
  6072                           ;incstack = 0
  6073  001422  92F2               	bcf	intcon,1,c	;volatile
  6074                           
  6075                           ;picuno.c: 3158: INT0_CallBack();
  6076  001424  EC1C  F00A         	call	_INT0_CallBack	;wreg free
  6077  001428  0012               	return	
  6078  00142A                     __end_of_INT0_ISR:
  6079                           	opt stack 0
  6080                           pclatu	equ	0xFFB
  6081                           pclath	equ	0xFFA
  6082                           tblptru	equ	0xFF8
  6083                           tblptrh	equ	0xFF7
  6084                           tblptrl	equ	0xFF6
  6085                           tablat	equ	0xFF5
  6086                           prodh	equ	0xFF4
  6087                           prodl	equ	0xFF3
  6088                           intcon	equ	0xFF2
  6089                           intcon2	equ	0xFF1
  6090                           intcon3	equ	0xFF0
  6091                           indf0	equ	0xFEF
  6092                           postinc0	equ	0xFEE
  6093                           fsr0h	equ	0xFEA
  6094                           fsr0l	equ	0xFE9
  6095                           wreg	equ	0xFE8
  6096                           postdec1	equ	0xFE5
  6097                           fsr1h	equ	0xFE2
  6098                           fsr1l	equ	0xFE1
  6099                           indf2	equ	0xFDF
  6100                           postinc2	equ	0xFDE
  6101                           postdec2	equ	0xFDD
  6102                           fsr2h	equ	0xFDA
  6103                           fsr2l	equ	0xFD9
  6104                           status	equ	0xFD8
  6105                           
  6106 ;; *************** function _INT0_CallBack *****************
  6107 ;; Defined at:
  6108 ;;		line 3161 in file "../../picuno/picuno.c"
  6109 ;; Parameters:    Size  Location     Type
  6110 ;;		None
  6111 ;; Auto vars:     Size  Location     Type
  6112 ;;		None
  6113 ;; Return value:  Size  Location     Type
  6114 ;;		None               void
  6115 ;; Registers used:
  6116 ;;		wreg, status,2, status,0
  6117 ;; Tracked objects:
  6118 ;;		On entry : 0/0
  6119 ;;		On exit  : 0/0
  6120 ;;		Unchanged: 0/0
  6121 ;; Data sizes:     COMRAM   BANK0   BANK1   BANK2   BANK3   BANK4   BANK5
  6122 ;;      Params:         0       0       0       0       0       0       0
  6123 ;;      Locals:         0       0       0       0       0       0       0
  6124 ;;      Temps:          0       0       0       0       0       0       0
  6125 ;;      Totals:         0       0       0       0       0       0       0
  6126 ;;Total ram usage:        0 bytes
  6127 ;; Hardware stack levels used:    1
  6128 ;; This function calls:
  6129 ;;		Nothing
  6130 ;; This function is called by:
  6131 ;;		_INT0_ISR
  6132 ;; This function uses a non-reentrant model
  6133 ;;
  6134                           
  6135                           	psect	text27
  6136  001438                     __ptext27:
  6137                           	opt stack 0
  6138  001438                     _INT0_CallBack:
  6139                           	opt stack 24
  6140                           
  6141                           ;incstack = 0
  6142  001438  0012               	return	
  6143  00143A                     __end_of_INT0_CallBack:
  6144                           	opt stack 0
  6145                           pclatu	equ	0xFFB
  6146                           pclath	equ	0xFFA
  6147                           tblptru	equ	0xFF8
  6148                           tblptrh	equ	0xFF7
  6149                           tblptrl	equ	0xFF6
  6150                           tablat	equ	0xFF5
  6151                           prodh	equ	0xFF4
  6152                           prodl	equ	0xFF3
  6153                           intcon	equ	0xFF2
  6154                           intcon2	equ	0xFF1
  6155                           intcon3	equ	0xFF0
  6156                           indf0	equ	0xFEF
  6157                           postinc0	equ	0xFEE
  6158                           fsr0h	equ	0xFEA
  6159                           fsr0l	equ	0xFE9
  6160                           wreg	equ	0xFE8
  6161                           postdec1	equ	0xFE5
  6162                           fsr1h	equ	0xFE2
  6163                           fsr1l	equ	0xFE1
  6164                           indf2	equ	0xFDF
  6165                           postinc2	equ	0xFDE
  6166                           postdec2	equ	0xFDD
  6167                           fsr2h	equ	0xFDA
  6168                           fsr2l	equ	0xFD9
  6169                           status	equ	0xFD8
  6170                           pclatu	equ	0xFFB
  6171                           pclath	equ	0xFFA
  6172                           tblptru	equ	0xFF8
  6173                           tblptrh	equ	0xFF7
  6174                           tblptrl	equ	0xFF6
  6175                           tablat	equ	0xFF5
  6176                           prodh	equ	0xFF4
  6177                           prodl	equ	0xFF3
  6178                           intcon	equ	0xFF2
  6179                           intcon2	equ	0xFF1
  6180                           intcon3	equ	0xFF0
  6181                           indf0	equ	0xFEF
  6182                           postinc0	equ	0xFEE
  6183                           fsr0h	equ	0xFEA
  6184                           fsr0l	equ	0xFE9
  6185                           wreg	equ	0xFE8
  6186                           postdec1	equ	0xFE5
  6187                           fsr1h	equ	0xFE2
  6188                           fsr1l	equ	0xFE1
  6189                           indf2	equ	0xFDF
  6190                           postinc2	equ	0xFDE
  6191                           postdec2	equ	0xFDD
  6192                           fsr2h	equ	0xFDA
  6193                           fsr2l	equ	0xFD9
  6194                           status	equ	0xFD8
  6195                           
  6196                           	psect	rparam
  6197  0000                     pclatu	equ	0xFFB
  6198                           pclath	equ	0xFFA
  6199                           tblptru	equ	0xFF8
  6200                           tblptrh	equ	0xFF7
  6201                           tblptrl	equ	0xFF6
  6202                           tablat	equ	0xFF5
  6203                           prodh	equ	0xFF4
  6204                           prodl	equ	0xFF3
  6205                           intcon	equ	0xFF2
  6206                           intcon2	equ	0xFF1
  6207                           intcon3	equ	0xFF0
  6208                           indf0	equ	0xFEF
  6209                           postinc0	equ	0xFEE
  6210                           fsr0h	equ	0xFEA
  6211                           fsr0l	equ	0xFE9
  6212                           wreg	equ	0xFE8
  6213                           postdec1	equ	0xFE5
  6214                           fsr1h	equ	0xFE2
  6215                           fsr1l	equ	0xFE1
  6216                           indf2	equ	0xFDF
  6217                           postinc2	equ	0xFDE
  6218                           postdec2	equ	0xFDD
  6219                           fsr2h	equ	0xFDA
  6220                           fsr2l	equ	0xFD9
  6221                           status	equ	0xFD8


Data Sizes:
    Strings     106
    Constant    8
    Data        4
    BSS         381
    Persistent  0
    Stack       0

Auto Spaces:
    Space          Size  Autos    Used
    COMRAM           95     30      78
    BANK0           160     15     160
    BANK1           256      4     196
    BANK2           256      0       0
    BANK3           256      0       0
    BANK4           256      0       0
    BANK5           256      0       0

Pointer List with Targets:

    sprintf@f	PTR const unsigned char  size(2) Largest target is 36
		 -> STR_3(CODE[36]), 

    sprintf@sp	PTR unsigned char  size(2) Largest target is 32
		 -> buf(BANK0[32]), 

    sprintf@ap	PTR void [1] size(2) Largest target is 2
		 -> ?_sprintf(COMRAM[2]), 

    S3472$_cp	PTR const unsigned char  size(2) Largest target is 0

    _val._str._cp	PTR const unsigned char  size(2) Largest target is 0

    INT2_InterruptHandler	PTR FTN()void  size(2) Largest target is 0
		 -> Absolute function(), 

    INT1_InterruptHandler	PTR FTN()void  size(2) Largest target is 0
		 -> Absolute function(), 

    INT0_InterruptHandler	PTR FTN()void  size(2) Largest target is 0
		 -> Absolute function(), 

    Serial_println@str	PTR const unsigned char  size(2) Largest target is 32
		 -> STR_5(CODE[6]), STR_4(CODE[22]), buf(BANK0[32]), STR_2(CODE[12]), 
		 -> STR_1(CODE[13]), 


Critical Paths under _main in COMRAM

    _i2c_init->___lldiv
    _pinMode->_analogInput
    _uart_brg_set->___lldiv
    _loop->_sprintf
    _sprintf->___lwdiv
    _i2c_out->_i2c_idle
    _Serial_println->_Serial_putc

Critical Paths under _InterruptHandlerHigh in COMRAM

    None.

Critical Paths under _main in BANK0

    _setup->_Serial_begin
    _Serial_begin->_uart_brg_set
    _loop->_sprintf

Critical Paths under _InterruptHandlerHigh in BANK0

    None.

Critical Paths under _main in BANK1

    _main->_loop

Critical Paths under _InterruptHandlerHigh in BANK1

    None.

Critical Paths under _main in BANK2

    None.

Critical Paths under _InterruptHandlerHigh in BANK2

    None.

Critical Paths under _main in BANK3

    None.

Critical Paths under _InterruptHandlerHigh in BANK3

    None.

Critical Paths under _main in BANK4

    None.

Critical Paths under _InterruptHandlerHigh in BANK4

    None.

Critical Paths under _main in BANK5

    None.

Critical Paths under _InterruptHandlerHigh in BANK5

    None.

Call Graph Tables:

 ---------------------------------------------------------------------------------
 (Depth) Function   	        Calls       Base Space   Used Autos Params    Refs
 ---------------------------------------------------------------------------------
 (0) _main                                                 0     0      0   11794
                               _init
                               _loop
                              _setup
                               _sync
                               _task
 ---------------------------------------------------------------------------------
 (1) _task                                                 0     0      0       0
 ---------------------------------------------------------------------------------
 (1) _sync                                                 0     0      0       0
 ---------------------------------------------------------------------------------
 (1) _setup                                                0     0      0    7591
                       _Serial_begin
                     _Serial_println
                           _i2c_init
 ---------------------------------------------------------------------------------
 (2) _i2c_init                                            12     8      4    5345
                                              0 BANK0     12     8      4
                            ___lldiv
                            _pinMode
 ---------------------------------------------------------------------------------
 (3) _pinMode                                              2     1      1    4149
                                             21 COMRAM     2     1      1
                        _analogInput
 ---------------------------------------------------------------------------------
 (4) _analogInput                                          4     4      0      45
                                             17 COMRAM     4     4      0
 ---------------------------------------------------------------------------------
 (2) _Serial_begin                                         4     0      4    1669
                                             11 BANK0      4     0      4
                       _uart_brg_set
 ---------------------------------------------------------------------------------
 (3) _uart_brg_set                                        11     7      4    1561
                                              0 BANK0     11     7      4
                            ___lldiv
 ---------------------------------------------------------------------------------
 (3) ___lldiv                                             13     5      8    1011
                                             17 COMRAM    13     5      8
 ---------------------------------------------------------------------------------
 (1) _loop                                                 4     4      0    4135
                                              0 BANK1      4     4      0
                     _Serial_println
                   _b_i2c_error_flag
                              _delay
                            _i2c_out
                            _sprintf
 ---------------------------------------------------------------------------------
 (2) _sprintf                                             19    13      6    2069
                                             24 COMRAM     6     0      6
                                              0 BANK0     13    13      0
                            ___lwdiv
                            _isdigit
 ---------------------------------------------------------------------------------
 (3) _isdigit                                              3     3      0      99
                                             17 COMRAM     3     3      0
 ---------------------------------------------------------------------------------
 (3) ___lwdiv                                              7     3      4     857
                                             17 COMRAM     7     3      4
 ---------------------------------------------------------------------------------
 (2) _i2c_out                                              2     1      1     832
                                             18 COMRAM     2     1      1
                           _i2c_idle
 ---------------------------------------------------------------------------------
 (3) _i2c_idle                                             1     1      0       0
                                             17 COMRAM     1     1      0
 ---------------------------------------------------------------------------------
 (2) _delay                                                4     2      2     456
                                             17 COMRAM     4     2      2
 ---------------------------------------------------------------------------------
 (2) _b_i2c_error_flag                                     0     0      0       0
 ---------------------------------------------------------------------------------
 (2) _Serial_println                                       2     0      2     577
                                             19 COMRAM     2     0      2
                        _Serial_putc
 ---------------------------------------------------------------------------------
 (3) _Serial_putc                                          2     2      0     127
                                             17 COMRAM     2     2      0
 ---------------------------------------------------------------------------------
 (1) _init                                                 1     1      0      68
                                             17 COMRAM     1     1      0
 ---------------------------------------------------------------------------------
 Estimated maximum stack depth 4
 ---------------------------------------------------------------------------------
 (Depth) Function   	        Calls       Base Space   Used Autos Params    Refs
 ---------------------------------------------------------------------------------
 (5) _InterruptHandlerHigh                                17    17      0     136
                                              0 COMRAM    17    17      0
                           _INT0_ISR
                           _INT1_ISR
                           _INT2_ISR
 ---------------------------------------------------------------------------------
 (6) _INT2_ISR                                             0     0      0       0
                      _INT2_CallBack
 ---------------------------------------------------------------------------------
 (7) _INT2_CallBack                                        0     0      0       0
 ---------------------------------------------------------------------------------
 (6) _INT1_ISR                                             0     0      0       0
                      _INT1_CallBack
 ---------------------------------------------------------------------------------
 (7) _INT1_CallBack                                        0     0      0       0
 ---------------------------------------------------------------------------------
 (6) _INT0_ISR                                             0     0      0       0
                      _INT0_CallBack
 ---------------------------------------------------------------------------------
 (7) _INT0_CallBack                                        0     0      0       0
 ---------------------------------------------------------------------------------
 Estimated maximum stack depth 7
 ---------------------------------------------------------------------------------

 Call Graph Graphs:

 _main (ROOT)
   _init
   _loop
     _Serial_println
       _Serial_putc
     _b_i2c_error_flag
     _delay
     _i2c_out
       _i2c_idle
     _sprintf
       ___lwdiv
       _isdigit
   _setup
     _Serial_begin
       _uart_brg_set
         ___lldiv
     _Serial_println
       _Serial_putc
     _i2c_init
       ___lldiv
       _pinMode
         _analogInput
   _sync
   _task

 _InterruptHandlerHigh (ROOT)
   _INT0_ISR
     _INT0_CallBack
   _INT1_ISR
     _INT1_CallBack
   _INT2_ISR
     _INT2_CallBack

 Address spaces:
Name               Size   Autos  Total    Cost      Usage
BIGRAM             5FF      0       0      16        0.0%
EEDATA             100      0       0       0        0.0%
BITBANK5           100      0       0      14        0.0%
BANK5              100      0       0      15        0.0%
BITBANK4           100      0       0      12        0.0%
BANK4              100      0       0      13        0.0%
BITBANK3           100      0       0      10        0.0%
BANK3              100      0       0      11        0.0%
BITBANK2           100      0       0       7        0.0%
BANK2              100      0       0       8        0.0%
BITBANK1           100      0       0       5        0.0%
BANK1              100      4      C4       6       76.6%
BITBANK0            A0      0       0       3        0.0%
BANK0               A0      F      A0       4      100.0%
BITCOMRAM           5F      0       0       0        0.0%
COMRAM              5F     1E      4E       1       82.1%
BITSFR_1             0      0       0      40        0.0%
SFR_1                0      0       0      40        0.0%
BITSFR               0      0       0      40        0.0%
SFR                  0      0       0      40        0.0%
STACK                0      0       0       2        0.0%
NULL                 0      0       0       0        0.0%
ABS                  0      0     1B2       9        0.0%
DATA                 0      0     1B2      17        0.0%
CODE                 0      0       0       0        0.0%


Microchip Technology PIC18 Macro Assembler V1.33 build 59893 
Symbol Table                                                                                   Fri Oct 02 23:03:50 2020

                  _SSPSTATbits 000FC7                            l420 0FBA                            l510 06A8  
                          l502 0678                            l601 08E8                            l522 0702  
                          l611 0924                            l603 08EE                            l531 0738  
                          l515 06D2                            l507 06A2                            l524 0708  
                          l621 0960                            l613 092A                            l541 0780  
                          l517 06D8                            l606 0906                            l534 0750  
                          l631 099C                            l623 0966                            l551 07BC  
                          l543 0786                            l616 0942                            l608 090C  
                          l536 0756                            l641 09D8                            l633 09A2  
                          l561 07F8                            l553 07C2                            l529 0732  
                          l626 097E                            l618 0948                            l546 079E  
                          l651 0A14                            l643 09DE                            l571 0834  
                          l563 07FE                            l636 09BA                            l628 0984  
                          l556 07DA                            l548 07A4                            l492 13F6  
                          l661 0A50                            l653 0A1A                            l581 0870  
                          l573 083A                            l646 09F6                            l638 09C0  
                          l566 0816                            l558 07E0                            l671 0A8C  
                          l663 0A56                            l591 08AC                            l583 0876  
                          l656 0A32                            l648 09FC                            l576 0852  
                          l568 081C                            l681 0AC8                            l673 0A92  
                          l593 08B2                            l666 0A6E                            l658 0A38  
                          l586 088E                            l578 0858                            l683 0ACE  
                          l676 0AAA                            l668 0A74                            l596 08CA  
                          l588 0894                            l686 0AE6                            l678 0AB0  
                          l598 08D0                            _PR2 000FBB                            _buf 00D1  
                          prod 000FF3                            wreg 000FE8                  _INT0_CallBack 1438  
                _INT1_CallBack 1436                           l1010 0EF6                           l1024 1242  
                         l1212 10D2                           l1230 12D2                           l1231 12C8  
                         l1235 12EA                           l1227 12B2                           l1236 12E0  
                         l1239 12EC                           l4302 07EA                           l4230 06B2  
                         l4222 0690                           l4320 0844                           l4410 0A06  
                         l4314 0826                           l4242 06E2                           l4234 06C0  
                         l4218 0682                           l1932 1148                           l4404 09E8  
                         l4332 0880                           l4308 0808                           l4422 0A42  
                         l4350 08DA                           l4326 0862                           l4254 0712  
                         l4246 06F0                           l6120 11D6                           l4440 0A9C  
                         l4416 0A24                           l4344 08BC                           l4272 0760  
                         l6130 11F6                           l6122 11DA                           l6042 10FA  
                         l4434 0A7E                           l4362 0916                           l4338 089E  
                         l4290 07AE                           l4266 0742                           l4258 0720  
                         l6108 13CC                           l6220 0C12                           l6212 0BEE  
                         l6044 1106                           l4452 0AD8                           l4428 0A60  
                         l4380 0970                           l4356 08F8                           l4284 0790  
                         l4276 076E                           l6118 11CE                           l6230 0C52  
                         l6206 0BD0                           l6054 113A                           l6046 110A  
                         l4446 0ABA                           l4374 0952                           l6232 0C7C  
                         l6224 0C36                           l4392 09AC                           l4368 0934  
                         l4296 07CC                           l6090 124C                           l6242 0CB0  
                         l6226 0C4C                           l4386 098E                           l4458 0AEC  
                         l1995 1200                           l6164 115C                           l6260 0D16  
                         l6332 0F20                           l4822 1004                           l6078 1212  
                         l4398 09CA                           l6168 1184                           l6264 0D34  
                         l6272 0D92                           l6256 0CF8                           l6352 0F94  
                         l6344 0F70                           l6282 1340                           l6290 135E  
                         l6098 13D4                           l6274 0D9E                           l6354 0FA0  
                         l6276 0DB8                           l6286 1350                           l6288 1356  
                         STR_1 0654                           STR_2 0661                           STR_3 0609  
                         STR_4 062D                           STR_5 066D                           STR_6 0643  
                         _LATA 000F89                           _LATB 000F8A                           _LATC 000F8B  
                         _LATD 000F8C                           _LATE 000F8D                           u3614 13A4  
                         u3615 13A0                           u7010 117C                           _PEIE 007F96  
                         u7020 11A4                           u7017 1172                           u7027 119A  
                         _RCIE 007CED                           _RCIF 007CF5                           _RCIP 007CFD  
                         u6920 13DE                           u6870 0E5A                           u6928 13E0  
                         u6875 0E4E                           u6995 107C                           _TMR2 000FBC  
                         _TXIE 007CEC                           _TXIF 007CF4                           _TXIP 007CFC  
                _INT2_CallBack 1434                           _main 13EE                           _init 0FAE  
                         _loop 0F00                           _task 1432                           fsr0h 000FEA  
                         fsr1h 000FE2                           indf0 000FEF                           fsr0l 000FE9  
                         fsr2h 000FDA                           fsr1l 000FE1                           indf2 000FDF  
                         fsr2l 000FD9                           _sync 1406                           pclat 000FFA  
                         prodh 000FF4                           prodl 000FF3                           start 029A  
              __end_of_i2c_out 12F6               __end_of_INT0_ISR 142A               __end_of_INT1_ISR 1422  
             __end_of_INT2_ISR 141A                   _BAUDCON1bits 000FB8                   _BAUDCON2bits 000F70  
                        ?_main 002D                          ?_init 002D                          _EEADR 000FA9  
                        ?_loop 002D                          ?_task 002D                __end_of___lldiv 115A  
                        ?_sync 002D                          _T0CON 000FD5                          _T1CON 000FCD  
                        _T2CON 000FBA                          _RC2IE 007D1D                          _RC2IF 007D25  
                        _RC2IP 007D2D                __end_of___lwdiv 120A                          i2l410 01D2  
                        i2l417 0260                          i2l390 00A8                          i2l382 004C  
                        i2l384 0058                          i2l387 0138                          i2l388 0096  
                        i2l397 00D6                          _HMSec 004B                          _RCSTA 000FAB  
                        _TMR0H 000FD7                          _TMR1H 000FCF                          _TMR0L 000FD6  
                        _TMR1L 000FCE                          _TX2IE 007D1C                          _TX2IF 007D24  
                        _TX2IP 007D2C                 ?_INT0_CallBack 002D                          _TXREG 000FAD  
                        _TXSTA 000FAC                          _Flags 0001                          __Addr 0005  
                        _Task1 00C0                          _Task2 00C1                          _Task3 00C2  
                        _Task4 00C3                          _Task5 00C4                          _Task6 00C5  
                        _Task7 00C6                          _Task8 00C7                 ?_INT1_CallBack 002D  
                        __cols 00C8                 _i2c_error_flag 0006                          _delay 133C  
                  i2c_out@data 003F                          __rows 00C9                __end_of_isdigit 13D4  
             _b_i2c_error_flag 142E                __end_of_pinMode 0BC2                          _setup 12F6  
               ?_INT2_CallBack 002D                          init@i 003E                          tablat 000FF5  
                        status 000FD8                __end_of_sprintf 0DC6           __size_of_analogInput 0022  
              __initialization 125C                   __end_of_main 1406                   __end_of_init 1048  
                 __end_of_loop 0FAE                   __end_of_task 1434                   __end_of_sync 1412  
             __end_of_i2c_idle 13EE               __end_of_i2c_init 10D8                         ??_main 004B  
                       ??_init 003E                         ??_loop 004B                         ??_task 003E  
                       ??_sync 003E                  __activetblptr 000002                 _Serial_println 115A  
                       ?_delay 003E                         _ADCON0 000FC2                         _ADCON1 000FC1  
                       _ADCON2 000FC0                         _ADRESH 000FC4                         _ADRESL 000FC3  
                       _EEDATA 000FA8                         _CCPR1H 000FBF                         _CCPR2H 000F68  
                       _CCPR3H 000F5F                         _CCPR1L 000FBE                         _CCPR4H 000F59  
                       _CCPR2L 000F67                         _CCPR3L 000F5E                         _CCPR4L 000F58  
                       _EECON2 000FA7                         ?_setup 002D                         _ANSELA 000F38  
                       _ANSELB 000F39                         _ANSELC 000F3A                         _ANSELD 000F3B  
                       _ANSELE 000F3C                         _T1GCON 000FCC                         i2l5002 0062  
                       i2l5100 01BA                         i2l5120 01F8                         i2l5130 0224  
                       i2l5132 0228                         i2l5108 01C6                         i2l5062 0114  
                       i2l5054 00E6                         i2l5038 00C6                         i2l5144 0254  
                       i2l5076 0162                         i2l5088 018E                         _RCREG1 000FAE  
                       _RCREG2 000F74                         _RCSTA2 000F71                         _OSCCON 000FD3  
                       _PLLRDY 007E97                         _TMR0IE 007F95                         _SPBRG1 000FAF  
                       _TMR0IF 007F92                         _SPBRG2 000F75                         _TMR0IP 007F8A  
                       _SPBRGH 000FB0                         _SSPADD 000FC8          InterruptHandlerHigh@i 003D  
                       _TXREG2 000F73                         _TXSTA2 000F72                      ??_i2c_out 0040  
                ??_Serial_putc 003E                         _OneSec 004C                         _TmrSec 004D  
                 _CCPTMRS0bits 000F49                   _CCPTMRS1bits 000F48                     _TimerArray 00A2  
                    ??___lldiv 0046                         _lcd_d0 0011                         _lcd_d1 0012  
                       _lcd_d2 0013                         _lcd_d3 0014                         _lcd_d4 0015  
                       _lcd_d5 0016                         _lcd_d6 0017                         _lcd_d7 0018  
                    ??___lwdiv 0042                         _lcd_en 0019                         _lcd_rs 001B  
                       delay@i 0040                         clear_0 1262                         clear_1 126E  
                       clear_2 127A                         _kstate 0010         __end_of_Serial_println 11B8  
              ??_INT0_CallBack 002D                   __pdataCOMRAM 004B                      ??_isdigit 003E  
              ??_INT1_CallBack 002D                      ??_pinMode 0043                   __mediumconst 0000  
                       tblptrh 000FF7                         tblptrl 000FF6                         tblptru 000FF8  
              ??_INT2_CallBack 002D                      ??_sprintf 00F1                     __accesstop 0060  
      __end_of__initialization 12A0                      ?_INT0_ISR 002D                      ?_INT1_ISR 002D  
                    ?_INT2_ISR 002D                 _uart1_rx_ready 0022                    pinMode@mode 0042  
               _uart2_rx_ready 00CE                 __pcstackCOMRAM 002D                  __end_of_delay 1368  
          __end_of_Serial_putc 125C                  __end_of_setup 133C                ?_Serial_println 0040  
             uart_brg_set@brgh 00FB               uart_brg_set@brgl 00FA             keypadRead@stateOld 00D0  
           keypadRead@stateNew 00CF  __size_of_InterruptHandlerHigh 0292                    loop@address 01C3  
                      ??_delay 0040                        ??_setup 004B                     __pbssBANK0 0060  
                   __pbssBANK1 0100                      ?_i2c_idle 002D                  ?_Serial_begin 00FC  
                    ?_i2c_init 00F1          _INT0_InterruptHandler 00BA                     ??_INT0_ISR 002D  
                   ??_INT1_ISR 002D                     ??_INT2_ISR 002D       __end_of_b_i2c_error_flag 1432  
                      _CCP1CON 000FBD                        _CCP2CON 000F66                        _CCP3CON 000F5D  
                      _CCP4CON 000F57                        _ECCP1AS 000FB6                        _ECCP2AS 000F64  
                      _ECCP3AS 000F5B                        _OSCCON2 000FD2                        _OSCTUNE 000F9B  
                      _PWM1CON 000FB7                        _PWM2CON 000F65                        _PWM3CON 000F5C  
                      _SPBRGH2 000F76                        _SSP1BUF 000FC9                        _SSPCON2 000FC5  
       InterruptHandlerHigh@dd 003B                 ??_Serial_begin 004B                     ??_i2c_idle 003E  
                   ??_i2c_init 00F5                        _i2c_out 12AA                    _Serial_putc 120A  
                      __Hparam 0000                        __Lparam 0000                        _TmrRxd1 0003  
                      _TmrRxd2 0004                        ___lldiv 10D8                        ___lwdiv 11B8  
                 __psmallconst 0600                        __pcinit 125C                        __ramtop 0600  
                      __ptext0 13EE                        __ptext1 1432                        __ptext2 1406  
                      __ptext3 12F6                        __ptext4 1048                        __ptext5 0674  
                      __ptext6 1392                        __ptext7 1368                        __ptext8 0DC6  
                      __ptext9 10D8              __end_of_hexpowers 0609                      _T1CONbits 000FCD  
                    _T2CONbits 000FBA                        _isdigit 13B4                        _pinMode 0674  
                      delay@ms 003E                        _sprintf 0BC2                        _sysTick 00B6  
                ?_uart_brg_set 00F1           end_of_initialization 12A0                  ??_analogInput 003E  
                __Lmediumconst 0000                ___lldiv@divisor 0042                ___lldiv@counter 004A  
                      postdec1 000FE5                        postdec2 000FDD                        postinc0 000FEE  
                      postinc2 000FDE                      _PORTAbits 000F80          _INT1_InterruptHandler 00BC  
                    _PORTBbits 000F81                      _PORTCbits 000F82                      _PORTDbits 000F83  
                    _PORTEbits 000F84              Serial_begin@speed 00FC                      _TRISAbits 000F92  
                    _TRISBbits 000F93                      _TRISCbits 000F94                      _TRISDbits 000F95  
                    _TRISEbits 000F96                 ??_uart_brg_set 00F5                      i2c_init@c 00F1  
            __size_of_INT0_ISR 0008              __size_of_INT1_ISR 0008              __size_of_INT2_ISR 0008  
          __end_of_analogInput 13B4               ??_Serial_println 0042                  __pidataCOMRAM 142A  
         __end_of_Serial_begin 1392          __end_of_INT0_CallBack 143A            start_initialization 125C  
             keypadRead@keyOld 002C               keypadRead@keyNew 002B          __end_of_INT1_CallBack 1438  
        __end_of_INT2_CallBack 1436                   loop@nDevices 01C1              uart_brg_set@speed 00F1  
 __end_of_InterruptHandlerHigh 029A              __size_of_i2c_idle 001A              __size_of_i2c_init 0090  
                    _TimerFlag 0002              ?_b_i2c_error_flag 002D             ??_b_i2c_error_flag 003E  
                _uart1_rx_char 001F                    __pbssCOMRAM 0001                  _uart2_rx_char 0026  
                __pcstackBANK0 00F1                  __pcstackBANK1 01C0                     pinMode@pin 0043  
          __end_of__stringdata 0673                   _isdigit$3884 003F                uart_brg_set@com 00F9  
                  _analogInput 1392                    sprintf@_val 00F7                    sprintf@flag 00F3  
        _INT2_InterruptHandler 00BE                    sprintf@prec 00FC                       ?_i2c_out 003F  
                 ?_Serial_putc 002D               ___lwdiv@dividend 003E                      __pintcode 0008  
                     ?___lldiv 003E           __end_of_uart_brg_set 0F00                       ?___lwdiv 003E  
                  __smallconst 0600                       ?_isdigit 002D                       ?_pinMode 0042  
                    _hexpowers 0601               ___lwdiv@quotient 0043                 __size_of_delay 002C  
                     ?_sprintf 0045                 __size_of_setup 0046                   Serial_putc@d 003F  
                 Serial_putc@p 003E                       _INT0_ISR 1422                       _INT1_ISR 141A  
                     _INT2_ISR 1412                       _LATAbits 000F89                       _LATBbits 000F8A  
                     _LATCbits 000F8B                       _LATDbits 000F8C                       _LATEbits 000F8D  
                     _PIE3bits 000FA3                   analogInput@d 0041                       _PIR1bits 000F9E  
        __size_of_Serial_begin 002A                       _RCONbits 000FD0                       _PSTR1CON 000FB9  
                     _PSTR2CON 000F63                       _PSTR3CON 000F5A                       _VREFCON0 000F42  
                   _ADCON0bits 000FC2                    __stringdata 0609           _InterruptHandlerHigh 0008  
                  _INTCON2bits 000FF1                    _INTCON3bits 000FF0                      copy_data0 1294  
                     _i2c_idle 13D4                       _i2c_init 1048                   _Serial_begin 1368  
                   _EECON1bits 000FA6                       __Hrparam 0000               __size_of_i2c_out 004C  
                     __Lrparam 0000                   _uart1_cr_cnt 001D                   _uart1_lf_cnt 001E  
                 _uart2_cr_cnt 0025                   _uart2_lf_cnt 00CD               __size_of___lldiv 0082  
                 _uart1_rx_cnt 0020               __size_of___lwdiv 0052                   _uart1_rx_pos 0021  
                 _uart1_tx_cnt 0023                   _uart1_tx_pos 0024                   _uart2_rx_cnt 0027  
                 _uart2_rx_pos 0028                   _uart2_tx_cnt 0029                   _uart2_tx_pos 002A  
        ?_InterruptHandlerHigh 002D                     sprintf@idx 00F4                      loop@error 01C0  
             __size_of_isdigit 0020               __size_of_pinMode 054E                ___lwdiv@divisor 0040  
              ___lwdiv@counter 0042                       __ptext10 0F00                       __ptext11 0BC2  
                     __ptext20 0FAE                       __ptext12 13B4                       __ptext13 11B8  
                     __ptext22 1412                       __ptext14 12AA                       __ptext23 1434  
                     __ptext15 13D4                       __ptext24 141A                       __ptext16 133C  
                     __ptext25 1436                       __ptext17 142E                       __ptext26 1422  
                     __ptext18 115A                       __ptext27 1438                       __ptext19 120A  
                  _keypad_col1 0007                    _keypad_col2 0008                    _keypad_col3 0009  
                  _keypad_col4 000A                    _keypad_mode 000B                       _lcd_disp 004E  
                  _keypad_row1 000C                    _keypad_row2 000D                       _lcd_cols 00CA  
                  _keypad_row3 000E                    _keypad_row4 000F                       _lcd_mode 001A  
                     _lcd_temp 00CC                       _lcd_rows 00CB               __size_of_sprintf 0204  
                __size_of_main 0018                  __size_of_init 009A                  __size_of_loop 00AE  
                __size_of_task 0002                  __size_of_sync 000C          __size_of_uart_brg_set 013A  
         __size_of_Serial_putc 0052                       _spi_mode 001C              Serial_println@str 0040  
         i2c_out@slave_address 0040                     _INTCONbits 000FF2                       isdigit@c 0040  
                  _uart1_rxbuf 0100                    _uart1_txbuf 0060      __size_of_b_i2c_error_flag 0004  
                  _uart2_rxbuf 0160                    _uart2_txbuf 0081                   _uart_brg_set 0DC6  
                     intlevel2 0000                      sprintf@ap 00F5                      sprintf@sp 0045  
               analogInput@ANx 0040                   ?_analogInput 002D               ___lldiv@dividend 003E  
                   _RCSTA2bits 000F71         __size_of_INT0_CallBack 0002         __size_of_INT1_CallBack 0002  
       __size_of_INT2_CallBack 0002         ??_InterruptHandlerHigh 002D                       sprintf@c 00FD  
                     sprintf@f 0047               ___lldiv@quotient 0046        __size_of_Serial_println 005E  
                  _SSPCON1bits 000FC6                    _SSPCON2bits 000FC5  
